

Microchip MPLAB XC8 Assembler V2.40 build 20220703182018 
                                                                                               Fri Sep 01 01:07:43 2023

Microchip MPLAB XC8 C Compiler v2.40 (Free license) build 20220703182018 Og1 
     1                           	processor	16F887
     2                           	pagewidth 120
     3                           	opt	flic
     4                           	psect	strings,global,class=STRING,delta=2,noexec
     5                           	psect	cinit,global,class=CODE,merge=1,delta=2
     6                           	psect	bssBANK0,global,class=BANK0,space=1,delta=1,noexec
     7                           	psect	bssBANK1,global,class=BANK1,space=1,delta=1,noexec
     8                           	psect	bssBANK3,global,class=BANK3,space=1,delta=1,noexec
     9                           	psect	bssBANK2,global,class=BANK2,space=1,delta=1,noexec
    10                           	psect	clrtext,global,class=CODE,delta=2
    11                           	psect	cstackBANK1,global,class=BANK1,space=1,delta=1,noexec
    12                           	psect	cstackCOMMON,global,class=COMMON,space=1,delta=1,noexec
    13                           	psect	cstackBANK0,global,class=BANK0,space=1,delta=1,noexec
    14                           	psect	maintext,global,class=CODE,split=1,delta=2
    15                           	psect	text1,local,class=CODE,merge=1,delta=2
    16                           	psect	text2,local,class=CODE,merge=1,delta=2
    17                           	psect	text3,local,class=CODE,merge=1,delta=2
    18                           	psect	text4,local,class=CODE,merge=1,delta=2
    19                           	psect	text5,local,class=CODE,merge=1,delta=2,group=2
    20                           	psect	text6,local,class=CODE,merge=1,delta=2
    21                           	psect	text7,local,class=CODE,merge=1,delta=2,group=1
    22                           	psect	text8,local,class=CODE,merge=1,delta=2,group=2
    23                           	psect	text9,local,class=CODE,merge=1,delta=2,group=2
    24                           	psect	text10,local,class=CODE,merge=1,delta=2
    25                           	psect	text11,local,class=CODE,merge=1,delta=2
    26                           	psect	text12,local,class=CODE,merge=1,delta=2
    27                           	psect	text13,local,class=CODE,merge=1,delta=2
    28                           	psect	text14,local,class=CODE,merge=1,delta=2
    29                           	psect	text15,local,class=CODE,merge=1,delta=2
    30                           	psect	text16,local,class=CODE,merge=1,delta=2
    31                           	psect	text17,local,class=CODE,merge=1,delta=2
    32                           	psect	text18,local,class=CODE,merge=1,delta=2
    33                           	psect	text19,local,class=CODE,merge=1,delta=2
    34                           	psect	text20,local,class=CODE,merge=1,delta=2
    35                           	psect	text21,local,class=CODE,merge=1,delta=2,group=2
    36                           	psect	text22,local,class=CODE,merge=1,delta=2,group=2
    37                           	psect	text23,local,class=CODE,merge=1,delta=2,group=2
    38                           	psect	text24,local,class=CODE,merge=1,delta=2,group=2
    39                           	psect	text25,local,class=CODE,merge=1,delta=2,group=2
    40                           	psect	text26,local,class=CODE,merge=1,delta=2,group=2
    41                           	psect	text27,local,class=CODE,merge=1,delta=2,group=2
    42                           	psect	text28,local,class=CODE,merge=1,delta=2,group=2
    43                           	psect	text29,local,class=CODE,merge=1,delta=2,group=2
    44                           	psect	text30,local,class=CODE,merge=1,delta=2
    45                           	psect	text31,local,class=CODE,merge=1,delta=2
    46                           	psect	text32,local,class=CODE,merge=1,delta=2
    47                           	psect	text33,local,class=CODE,merge=1,delta=2
    48                           	psect	text34,local,class=CODE,merge=1,delta=2
    49                           	psect	text35,local,class=CODE,merge=1,delta=2
    50                           	psect	text36,local,class=CODE,merge=1,delta=2
    51                           	psect	text37,local,class=CODE,merge=1,delta=2
    52                           	psect	text38,local,class=CODE,merge=1,delta=2
    53                           	psect	text39,local,class=CODE,merge=1,delta=2
    54                           	psect	text40,local,class=CODE,merge=1,delta=2
    55                           	psect	text41,local,class=CODE,merge=1,delta=2
    56                           	psect	idloc,global,abs,ovrld,class=IDLOC,space=5,delta=2,noexec
    57                           	psect	config,global,abs,ovrld,class=CONFIG,space=4,delta=2,noexec
    58                           	dabs	1,0x7E,2
    59     0000                     
    60                           ; Version 2.40
    61                           ; Generated 17/11/2021 GMT
    62                           ; 
    63                           ; Copyright © 2021, Microchip Technology Inc. and its subsidiaries ("Microchip")
    64                           ; All rights reserved.
    65                           ; 
    66                           ; This software is developed by Microchip Technology Inc. and its subsidiaries ("Microch
      +                          ip").
    67                           ; 
    68                           ; Redistribution and use in source and binary forms, with or without modification, are
    69                           ; permitted provided that the following conditions are met:
    70                           ; 
    71                           ;     1. Redistributions of source code must retain the above copyright notice, this lis
      +                          t of
    72                           ;        conditions and the following disclaimer.
    73                           ; 
    74                           ;     2. Redistributions in binary form must reproduce the above copyright notice, this 
      +                          list
    75                           ;        of conditions and the following disclaimer in the documentation and/or other
    76                           ;        materials provided with the distribution. Publication is not required when
    77                           ;        this file is used in an embedded application.
    78                           ; 
    79                           ;     3. Microchip's name may not be used to endorse or promote products derived from th
      +                          is
    80                           ;        software without specific prior written permission.
    81                           ; 
    82                           ; THIS SOFTWARE IS PROVIDED BY MICROCHIP "AS IS" AND ANY EXPRESS OR IMPLIED WARRANTIES,
    83                           ; INCLUDING, BUT NOT LIMITED TO, THE IMPLIED WARRANTIES OF MERCHANTABILITY AND FITNESS F
      +                          OR
    84                           ; PURPOSE ARE DISCLAIMED.  IN NO EVENT SHALL MICROCHIP BE LIABLE FOR ANY DIRECT, INDIREC
      +                          T,
    85                           ; INCIDENTAL, SPECIAL, EXEMPLARY, OR CONSEQUENTIAL DAMAGES (INCLUDING BUT NOT LIMITED TO
    86                           ; PROCUREMENT OF SUBSTITUTE GOODS OR SERVICES; LOSS OF USE, DATA OR PROFITS; OR BUSINESS
    87                           ; INTERRUPTION) HOWSOEVER CAUSED AND ON ANY THEORY OF LIABILITY, WHETHER IN CONTRACT, ST
      +                          RICT
    88                           ; LIABILITY, OR TORT (INCLUDING NEGLIGENCE OR OTHERWISE) ARISING IN ANY WAY OUT OF THE U
      +                          SE OF
    89                           ; THIS SOFTWARE, EVEN IF ADVISED OF THE POSSIBILITY OF SUCH DAMAGE.
    90                           ; 
    91                           ; 
    92                           ; Code-generator required, PIC16F887 Definitions
    93                           ; 
    94                           ; SFR Addresses
    95     0000                     	;# 
    96     0001                     	;# 
    97     0002                     	;# 
    98     0003                     	;# 
    99     0004                     	;# 
   100     0005                     	;# 
   101     0006                     	;# 
   102     0007                     	;# 
   103     0008                     	;# 
   104     0009                     	;# 
   105     000A                     	;# 
   106     000B                     	;# 
   107     000C                     	;# 
   108     000D                     	;# 
   109     000E                     	;# 
   110     000E                     	;# 
   111     000F                     	;# 
   112     0010                     	;# 
   113     0011                     	;# 
   114     0012                     	;# 
   115     0013                     	;# 
   116     0014                     	;# 
   117     0015                     	;# 
   118     0015                     	;# 
   119     0016                     	;# 
   120     0017                     	;# 
   121     0018                     	;# 
   122     0019                     	;# 
   123     001A                     	;# 
   124     001B                     	;# 
   125     001B                     	;# 
   126     001C                     	;# 
   127     001D                     	;# 
   128     001E                     	;# 
   129     001F                     	;# 
   130     0081                     	;# 
   131     0085                     	;# 
   132     0086                     	;# 
   133     0087                     	;# 
   134     0088                     	;# 
   135     0089                     	;# 
   136     008C                     	;# 
   137     008D                     	;# 
   138     008E                     	;# 
   139     008F                     	;# 
   140     0090                     	;# 
   141     0091                     	;# 
   142     0092                     	;# 
   143     0093                     	;# 
   144     0093                     	;# 
   145     0093                     	;# 
   146     0094                     	;# 
   147     0095                     	;# 
   148     0096                     	;# 
   149     0097                     	;# 
   150     0098                     	;# 
   151     0099                     	;# 
   152     009A                     	;# 
   153     009B                     	;# 
   154     009C                     	;# 
   155     009D                     	;# 
   156     009E                     	;# 
   157     009F                     	;# 
   158     0105                     	;# 
   159     0107                     	;# 
   160     0108                     	;# 
   161     0109                     	;# 
   162     010C                     	;# 
   163     010C                     	;# 
   164     010D                     	;# 
   165     010E                     	;# 
   166     010F                     	;# 
   167     0185                     	;# 
   168     0187                     	;# 
   169     0188                     	;# 
   170     0189                     	;# 
   171     018C                     	;# 
   172     018D                     	;# 
   173     0000                     	;# 
   174     0001                     	;# 
   175     0002                     	;# 
   176     0003                     	;# 
   177     0004                     	;# 
   178     0005                     	;# 
   179     0006                     	;# 
   180     0007                     	;# 
   181     0008                     	;# 
   182     0009                     	;# 
   183     000A                     	;# 
   184     000B                     	;# 
   185     000C                     	;# 
   186     000D                     	;# 
   187     000E                     	;# 
   188     000E                     	;# 
   189     000F                     	;# 
   190     0010                     	;# 
   191     0011                     	;# 
   192     0012                     	;# 
   193     0013                     	;# 
   194     0014                     	;# 
   195     0015                     	;# 
   196     0015                     	;# 
   197     0016                     	;# 
   198     0017                     	;# 
   199     0018                     	;# 
   200     0019                     	;# 
   201     001A                     	;# 
   202     001B                     	;# 
   203     001B                     	;# 
   204     001C                     	;# 
   205     001D                     	;# 
   206     001E                     	;# 
   207     001F                     	;# 
   208     0081                     	;# 
   209     0085                     	;# 
   210     0086                     	;# 
   211     0087                     	;# 
   212     0088                     	;# 
   213     0089                     	;# 
   214     008C                     	;# 
   215     008D                     	;# 
   216     008E                     	;# 
   217     008F                     	;# 
   218     0090                     	;# 
   219     0091                     	;# 
   220     0092                     	;# 
   221     0093                     	;# 
   222     0093                     	;# 
   223     0093                     	;# 
   224     0094                     	;# 
   225     0095                     	;# 
   226     0096                     	;# 
   227     0097                     	;# 
   228     0098                     	;# 
   229     0099                     	;# 
   230     009A                     	;# 
   231     009B                     	;# 
   232     009C                     	;# 
   233     009D                     	;# 
   234     009E                     	;# 
   235     009F                     	;# 
   236     0105                     	;# 
   237     0107                     	;# 
   238     0108                     	;# 
   239     0109                     	;# 
   240     010C                     	;# 
   241     010C                     	;# 
   242     010D                     	;# 
   243     010E                     	;# 
   244     010F                     	;# 
   245     0185                     	;# 
   246     0187                     	;# 
   247     0188                     	;# 
   248     0189                     	;# 
   249     018C                     	;# 
   250     018D                     	;# 
   251     0000                     	;# 
   252     0001                     	;# 
   253     0002                     	;# 
   254     0003                     	;# 
   255     0004                     	;# 
   256     0005                     	;# 
   257     0006                     	;# 
   258     0007                     	;# 
   259     0008                     	;# 
   260     0009                     	;# 
   261     000A                     	;# 
   262     000B                     	;# 
   263     000C                     	;# 
   264     000D                     	;# 
   265     000E                     	;# 
   266     000E                     	;# 
   267     000F                     	;# 
   268     0010                     	;# 
   269     0011                     	;# 
   270     0012                     	;# 
   271     0013                     	;# 
   272     0014                     	;# 
   273     0015                     	;# 
   274     0015                     	;# 
   275     0016                     	;# 
   276     0017                     	;# 
   277     0018                     	;# 
   278     0019                     	;# 
   279     001A                     	;# 
   280     001B                     	;# 
   281     001B                     	;# 
   282     001C                     	;# 
   283     001D                     	;# 
   284     001E                     	;# 
   285     001F                     	;# 
   286     0081                     	;# 
   287     0085                     	;# 
   288     0086                     	;# 
   289     0087                     	;# 
   290     0088                     	;# 
   291     0089                     	;# 
   292     008C                     	;# 
   293     008D                     	;# 
   294     008E                     	;# 
   295     008F                     	;# 
   296     0090                     	;# 
   297     0091                     	;# 
   298     0092                     	;# 
   299     0093                     	;# 
   300     0093                     	;# 
   301     0093                     	;# 
   302     0094                     	;# 
   303     0095                     	;# 
   304     0096                     	;# 
   305     0097                     	;# 
   306     0098                     	;# 
   307     0099                     	;# 
   308     009A                     	;# 
   309     009B                     	;# 
   310     009C                     	;# 
   311     009D                     	;# 
   312     009E                     	;# 
   313     009F                     	;# 
   314     0105                     	;# 
   315     0107                     	;# 
   316     0108                     	;# 
   317     0109                     	;# 
   318     010C                     	;# 
   319     010C                     	;# 
   320     010D                     	;# 
   321     010E                     	;# 
   322     010F                     	;# 
   323     0185                     	;# 
   324     0187                     	;# 
   325     0188                     	;# 
   326     0189                     	;# 
   327     018C                     	;# 
   328     018D                     	;# 
   329     0000                     	;# 
   330     0001                     	;# 
   331     0002                     	;# 
   332     0003                     	;# 
   333     0004                     	;# 
   334     0005                     	;# 
   335     0006                     	;# 
   336     0007                     	;# 
   337     0008                     	;# 
   338     0009                     	;# 
   339     000A                     	;# 
   340     000B                     	;# 
   341     000C                     	;# 
   342     000D                     	;# 
   343     000E                     	;# 
   344     000E                     	;# 
   345     000F                     	;# 
   346     0010                     	;# 
   347     0011                     	;# 
   348     0012                     	;# 
   349     0013                     	;# 
   350     0014                     	;# 
   351     0015                     	;# 
   352     0015                     	;# 
   353     0016                     	;# 
   354     0017                     	;# 
   355     0018                     	;# 
   356     0019                     	;# 
   357     001A                     	;# 
   358     001B                     	;# 
   359     001B                     	;# 
   360     001C                     	;# 
   361     001D                     	;# 
   362     001E                     	;# 
   363     001F                     	;# 
   364     0081                     	;# 
   365     0085                     	;# 
   366     0086                     	;# 
   367     0087                     	;# 
   368     0088                     	;# 
   369     0089                     	;# 
   370     008C                     	;# 
   371     008D                     	;# 
   372     008E                     	;# 
   373     008F                     	;# 
   374     0090                     	;# 
   375     0091                     	;# 
   376     0092                     	;# 
   377     0093                     	;# 
   378     0093                     	;# 
   379     0093                     	;# 
   380     0094                     	;# 
   381     0095                     	;# 
   382     0096                     	;# 
   383     0097                     	;# 
   384     0098                     	;# 
   385     0099                     	;# 
   386     009A                     	;# 
   387     009B                     	;# 
   388     009C                     	;# 
   389     009D                     	;# 
   390     009E                     	;# 
   391     009F                     	;# 
   392     0105                     	;# 
   393     0107                     	;# 
   394     0108                     	;# 
   395     0109                     	;# 
   396     010C                     	;# 
   397     010C                     	;# 
   398     010D                     	;# 
   399     010E                     	;# 
   400     010F                     	;# 
   401     0185                     	;# 
   402     0187                     	;# 
   403     0188                     	;# 
   404     0189                     	;# 
   405     018C                     	;# 
   406     018D                     	;# 
   407     0000                     	;# 
   408     0001                     	;# 
   409     0002                     	;# 
   410     0003                     	;# 
   411     0004                     	;# 
   412     0005                     	;# 
   413     0006                     	;# 
   414     0007                     	;# 
   415     0008                     	;# 
   416     0009                     	;# 
   417     000A                     	;# 
   418     000B                     	;# 
   419     000C                     	;# 
   420     000D                     	;# 
   421     000E                     	;# 
   422     000E                     	;# 
   423     000F                     	;# 
   424     0010                     	;# 
   425     0011                     	;# 
   426     0012                     	;# 
   427     0013                     	;# 
   428     0014                     	;# 
   429     0015                     	;# 
   430     0015                     	;# 
   431     0016                     	;# 
   432     0017                     	;# 
   433     0018                     	;# 
   434     0019                     	;# 
   435     001A                     	;# 
   436     001B                     	;# 
   437     001B                     	;# 
   438     001C                     	;# 
   439     001D                     	;# 
   440     001E                     	;# 
   441     001F                     	;# 
   442     0081                     	;# 
   443     0085                     	;# 
   444     0086                     	;# 
   445     0087                     	;# 
   446     0088                     	;# 
   447     0089                     	;# 
   448     008C                     	;# 
   449     008D                     	;# 
   450     008E                     	;# 
   451     008F                     	;# 
   452     0090                     	;# 
   453     0091                     	;# 
   454     0092                     	;# 
   455     0093                     	;# 
   456     0093                     	;# 
   457     0093                     	;# 
   458     0094                     	;# 
   459     0095                     	;# 
   460     0096                     	;# 
   461     0097                     	;# 
   462     0098                     	;# 
   463     0099                     	;# 
   464     009A                     	;# 
   465     009B                     	;# 
   466     009C                     	;# 
   467     009D                     	;# 
   468     009E                     	;# 
   469     009F                     	;# 
   470     0105                     	;# 
   471     0107                     	;# 
   472     0108                     	;# 
   473     0109                     	;# 
   474     010C                     	;# 
   475     010C                     	;# 
   476     010D                     	;# 
   477     010E                     	;# 
   478     010F                     	;# 
   479     0185                     	;# 
   480     0187                     	;# 
   481     0188                     	;# 
   482     0189                     	;# 
   483     018C                     	;# 
   484     018D                     	;# 
   485                           
   486                           	psect	strings
   487     1000                     __pstrings:
   488     1000                     stringtab:
   489     1000                     __stringtab:
   490                           
   491                           ;	String table - string pointers are 1 byte each
   492     1000  1BFF               	btfsc	btemp+1,7
   493     1001  280A               	ljmp	stringcode
   494     1002  1383               	bcf	3,7
   495     1003  187F               	btfsc	btemp+1,0
   496     1004  1783               	bsf	3,7
   497     1005  0800               	movf	0,w
   498     1006  0A84               	incf	4,f
   499     1007  1903               	skipnz
   500     1008  0AFF               	incf	btemp+1,f
   501     1009  0008               	return
   502     100A                     stringcode:
   503     100A                     stringdir:
   504     100A  3010               	movlw	high stringdir
   505     100B  008A               	movwf	10
   506     100C  0804               	movf	4,w
   507     100D  0A84               	incf	4,f
   508     100E  0782               	addwf	2,f
   509     100F                     __stringbase:
   510     100F  3400               	retlw	0
   511     1010                     __end_of__stringtab:
   512     1010                     _dpowers:
   513     1010  3401               	retlw	1
   514     1011  3400               	retlw	0
   515     1012  340A               	retlw	10
   516     1013  3400               	retlw	0
   517     1014  3464               	retlw	100
   518     1015  3400               	retlw	0
   519     1016  34E8               	retlw	232
   520     1017  3403               	retlw	3
   521     1018  3410               	retlw	16
   522     1019  3427               	retlw	39
   523     101A                     __end_of_dpowers:
   524     001A                     _RCREG	set	26
   525     000B                     _INTCONbits	set	11
   526     000C                     _PIR1bits	set	12
   527     0018                     _RCSTAbits	set	24
   528     0019                     _TXREG	set	25
   529     0009                     _PORTE	set	9
   530     0008                     _PORTD	set	8
   531     0006                     _PORTB	set	6
   532     0005                     _PORTA	set	5
   533     0006                     _PORTBbits	set	6
   534     0013                     _SSPBUF	set	19
   535     0014                     _SSPCON	set	20
   536     0049                     _RE1	set	73
   537     0048                     _RE0	set	72
   538     0047                     _RD7	set	71
   539     0046                     _RD6	set	70
   540     0045                     _RD5	set	69
   541     0044                     _RD4	set	68
   542     0043                     _RD3	set	67
   543     0042                     _RD2	set	66
   544     0041                     _RD1	set	65
   545     0040                     _RD0	set	64
   546     0063                     _SSPIF	set	99
   547     005E                     _PEIE	set	94
   548     005F                     _GIE	set	95
   549     0098                     _TXSTAbits	set	152
   550     008C                     _PIE1bits	set	140
   551     009A                     _SPBRGH	set	154
   552     0099                     _SPBRG	set	153
   553     008F                     _OSCCONbits	set	143
   554     0089                     _TRISE	set	137
   555     0088                     _TRISD	set	136
   556     0086                     _TRISB	set	134
   557     0085                     _TRISA	set	133
   558     0091                     _SSPCON2bits	set	145
   559     0087                     _TRISCbits	set	135
   560     0094                     _SSPSTAT	set	148
   561     0093                     _SSPADD	set	147
   562     0091                     _SSPCON2	set	145
   563     0463                     _SSPIE	set	1123
   564     043C                     _TRISC4	set	1084
   565     043B                     _TRISC3	set	1083
   566     0187                     _BAUDCTLbits	set	391
   567     0189                     _ANSELH	set	393
   568     0188                     _ANSEL	set	392
   569     101A                     STR_4:
   570     101A  3464               	retlw	100	;'d'
   571     101B  3461               	retlw	97	;'a'
   572     101C  3472               	retlw	114	;'r'
   573     101D  346B               	retlw	107	;'k'
   574     101E  3420               	retlw	32	;' '
   575     101F  3400               	retlw	0
   576     1020                     STR_5:
   577     1020  346C               	retlw	108	;'l'
   578     1021  3469               	retlw	105	;'i'
   579     1022  3467               	retlw	103	;'g'
   580     1023  3468               	retlw	104	;'h'
   581     1024  3474               	retlw	116	;'t'
   582     1025  3400               	retlw	0
   583     1026                     STR_1:
   584     1026  3425               	retlw	37	;'%'
   585     1027  3475               	retlw	117	;'u'
   586     1028  3400               	retlw	0
   587     1026                     
   588                           	psect	cinit
   589     07DA                     start_initialization:	
   590                           ; #config settings
   591                           
   592     07DA                     __initialization:
   593                           
   594                           ; Clear objects allocated to BANK0
   595     07DA  1283               	bcf	3,5	;RP0=0, select bank0
   596     07DB  1303               	bcf	3,6	;RP1=0, select bank0
   597     07DC  01EA               	clrf	__pbssBANK0& (0+127)
   598     07DD  01EB               	clrf	(__pbssBANK0+1)& (0+127)
   599     07DE  01EC               	clrf	(__pbssBANK0+2)& (0+127)
   600     07DF  01ED               	clrf	(__pbssBANK0+3)& (0+127)
   601     07E0  01EE               	clrf	(__pbssBANK0+4)& (0+127)
   602     07E1  01EF               	clrf	(__pbssBANK0+5)& (0+127)
   603                           
   604                           ; Clear objects allocated to BANK1
   605     07E2  1383               	bcf	3,7	;select IRP bank0
   606     07E3  30A0               	movlw	low __pbssBANK1
   607     07E4  0084               	movwf	4
   608     07E5  30CB               	movlw	low (__pbssBANK1+43)
   609     07E6  160A  118A  2160  120A  118A  	fcall	clear_ram0
   610                           
   611                           ; Clear objects allocated to BANK3
   612     07EB  1783               	bsf	3,7	;select IRP bank2
   613     07EC  3090               	movlw	low __pbssBANK3
   614     07ED  0084               	movwf	4
   615     07EE  30D5               	movlw	low (__pbssBANK3+69)
   616     07EF  160A  118A  2160  120A  118A  	fcall	clear_ram0
   617                           
   618                           ; Clear objects allocated to BANK2
   619     07F4  3010               	movlw	low __pbssBANK2
   620     07F5  0084               	movwf	4
   621     07F6  3070               	movlw	low (__pbssBANK2+96)
   622     07F7  160A  118A  2160  120A  118A  	fcall	clear_ram0
   623     07FC                     end_of_initialization:	
   624                           ;End of C runtime variable initialization code
   625                           
   626     07FC                     __end_of__initialization:
   627     07FC  0183               	clrf	3
   628     07FD  160A  118A  2B14   	ljmp	_main	;jump to C main() function
   629                           
   630                           	psect	bssBANK0
   631     006A                     __pbssBANK0:
   632     006A                     _ch1:
   633     006A                     	ds	2
   634     006C                     _ch0:
   635     006C                     	ds	2
   636     006E                     _seconds:
   637     006E                     	ds	2
   638                           
   639                           	psect	bssBANK1
   640     00A0                     __pbssBANK1:
   641     00A0                     _temperature:
   642     00A0                     	ds	4
   643     00A4                     _nothing:
   644     00A4                     	ds	2
   645     00A6                     _DCmotor:
   646     00A6                     	ds	2
   647     00A8                     _light:
   648     00A8                     	ds	2
   649     00AA                     _uniHours:
   650     00AA                     	ds	2
   651     00AC                     _decHours:
   652     00AC                     	ds	2
   653     00AE                     _uniMinutes:
   654     00AE                     	ds	2
   655     00B0                     _decMinutes:
   656     00B0                     	ds	2
   657     00B2                     _uniSeconds:
   658     00B2                     	ds	2
   659     00B4                     _decSeconds:
   660     00B4                     	ds	2
   661     00B6                     _ch2:
   662     00B6                     	ds	2
   663     00B8                     _buffTime:
   664     00B8                     	ds	10
   665     00C2                     _buffer:
   666     00C2                     	ds	5
   667     00C7                     _hours:
   668     00C7                     	ds	2
   669     00C9                     _minutes:
   670     00C9                     	ds	2
   671                           
   672                           	psect	bssBANK3
   673     0190                     __pbssBANK3:
   674     0190                     _data:
   675     0190                     	ds	6
   676     0196                     _bufferch0:
   677     0196                     	ds	48
   678     01C6                     _bufferTotal:
   679     01C6                     	ds	15
   680                           
   681                           	psect	bssBANK2
   682     0110                     __pbssBANK2:
   683     0110                     _bufferch2:
   684     0110                     	ds	48
   685     0140                     _bufferch1:
   686     0140                     	ds	48
   687                           
   688                           	psect	clrtext
   689     1160                     clear_ram0:	
   690                           ;	Called with FSR containing the base address, and
   691                           ;	W with the last address+1
   692                           
   693     1160  0064               	clrwdt	;clear the watchdog before getting into this loop
   694     1161                     clrloop0:
   695     1161  0180               	clrf	0	;clear RAM location pointed to by FSR
   696     1162  0A84               	incf	4,f	;increment pointer
   697     1163  0604               	xorwf	4,w	;XOR with final address
   698     1164  1903               	btfsc	3,2	;have we reached the end yet?
   699     1165  3400               	retlw	0	;all done for this memory range, return
   700     1166  0604               	xorwf	4,w	;XOR again to restore value
   701     1167  2961               	goto	clrloop0	;do the next byte
   702                           
   703                           	psect	cstackBANK1
   704     00CB                     __pcstackBANK1:
   705     00CB                     floattostr@tempo_int:
   706                           
   707                           ; 2 bytes @ 0x0
   708     00CB                     	ds	2
   709     00CD                     floattostr@tempo_float:
   710                           
   711                           ; 4 bytes @ 0x2
   712     00CD                     	ds	4
   713     00D1                     floattostr@largo_n:
   714                           
   715                           ; 2 bytes @ 0x6
   716     00D1                     	ds	2
   717     00D3                     floattostr@cont_for:
   718                           
   719                           ; 2 bytes @ 0x8
   720     00D3                     	ds	2
   721     00D5                     floattostr@largo_entera:
   722                           
   723                           ; 2 bytes @ 0xA
   724     00D5                     	ds	2
   725     00D7                     ??_AHT10_Read:
   726                           
   727                           ; 1 bytes @ 0xC
   728     00D7                     	ds	14
   729     00E5                     AHT10_Read@data:
   730                           
   731                           ; 7 bytes @ 0x1A
   732     00E5                     	ds	7
   733                           
   734                           	psect	cstackCOMMON
   735     0070                     __pcstackCOMMON:
   736     0070                     ?___flge:
   737     0070                     ?_setup:	
   738                           ; 1 bit 
   739                           
   740     0070                     ?_AHT10_Soft_Reset:	
   741                           ; 1 bytes @ 0x0
   742                           
   743     0070                     ?_AHT10_Init:	
   744                           ; 1 bytes @ 0x0
   745                           
   746     0070                     ?_TSL2561_Init:	
   747                           ; 1 bytes @ 0x0
   748                           
   749     0070                     ?_AHT10_Read:	
   750                           ; 1 bytes @ 0x0
   751                           
   752     0070                     ?_TSL2561_Read:	
   753                           ; 1 bytes @ 0x0
   754                           
   755     0070                     ?_RTC:	
   756                           ; 1 bytes @ 0x0
   757                           
   758     0070                     ?_SendESP:	
   759                           ; 1 bytes @ 0x0
   760                           
   761     0070                     ?_DCOnOff:	
   762                           ; 1 bytes @ 0x0
   763                           
   764     0070                     ?_UART_TX_config:	
   765                           ; 1 bytes @ 0x0
   766                           
   767     0070                     ?_UART_RX_config:	
   768                           ; 1 bytes @ 0x0
   769                           
   770     0070                     ?_UART_write_char:	
   771                           ; 1 bytes @ 0x0
   772                           
   773     0070                     ??_UART_write_char:	
   774                           ; 1 bytes @ 0x0
   775                           
   776     0070                     ?_NumtoChar:	
   777                           ; 1 bytes @ 0x0
   778                           
   779     0070                     ?_I2C_Master_Wait:	
   780                           ; 1 bytes @ 0x0
   781                           
   782     0070                     ??_I2C_Master_Wait:	
   783                           ; 1 bytes @ 0x0
   784                           
   785     0070                     ?_I2C_Master_Start:	
   786                           ; 1 bytes @ 0x0
   787                           
   788     0070                     ??_I2C_Master_Start:	
   789                           ; 1 bytes @ 0x0
   790                           
   791     0070                     ?_I2C_Master_RepeatedStart:	
   792                           ; 1 bytes @ 0x0
   793                           
   794     0070                     ??_I2C_Master_RepeatedStart:	
   795                           ; 1 bytes @ 0x0
   796                           
   797     0070                     ?_I2C_Master_Stop:	
   798                           ; 1 bytes @ 0x0
   799                           
   800     0070                     ??_I2C_Master_Stop:	
   801                           ; 1 bytes @ 0x0
   802                           
   803     0070                     ?_I2C_Master_Write:	
   804                           ; 1 bytes @ 0x0
   805                           
   806     0070                     ?_Lcd_Port:	
   807                           ; 1 bytes @ 0x0
   808                           
   809     0070                     ??_Lcd_Port:	
   810                           ; 1 bytes @ 0x0
   811                           
   812     0070                     ?_Lcd_Cmd:	
   813                           ; 1 bytes @ 0x0
   814                           
   815     0070                     ?_Lcd_Init:	
   816                           ; 1 bytes @ 0x0
   817                           
   818     0070                     ?_Lcd_Write_Char:	
   819                           ; 1 bytes @ 0x0
   820                           
   821     0070                     ?_main:	
   822                           ; 1 bytes @ 0x0
   823                           
   824     0070                     ?_cadena:	
   825                           ; 1 bytes @ 0x0
   826                           
   827     0070                     ??_cadena:	
   828                           ; 1 bytes @ 0x0
   829                           
   830     0070                     ?__Umul8_16:	
   831                           ; 1 bytes @ 0x0
   832                           
   833     0070                     ?_I2C_Master_Read:	
   834                           ; 2 bytes @ 0x0
   835                           
   836     0070                     ?___lwdiv:	
   837                           ; 2 bytes @ 0x0
   838                           
   839     0070                     ?___lldiv:	
   840                           ; 2 bytes @ 0x0
   841                           
   842     0070                     ?___flneg:	
   843                           ; 4 bytes @ 0x0
   844                           
   845     0070                     ?___fltol:	
   846                           ; 4 bytes @ 0x0
   847                           
   848     0070                     ?___fldiv:	
   849                           ; 4 bytes @ 0x0
   850                           
   851     0070                     ?___xxtofl:	
   852                           ; 4 bytes @ 0x0
   853                           
   854     0070                     Lcd_Port@a:	
   855                           ; 4 bytes @ 0x0
   856                           
   857     0070                     UART_write_char@c:	
   858                           ; 1 bytes @ 0x0
   859                           
   860     0070                     __Umul8_16@multiplicand:	
   861                           ; 1 bytes @ 0x0
   862                           
   863     0070                     I2C_Master_Write@d:	
   864                           ; 1 bytes @ 0x0
   865                           
   866     0070                     I2C_Master_Read@a:	
   867                           ; 2 bytes @ 0x0
   868                           
   869     0070                     NumtoChar@a:	
   870                           ; 2 bytes @ 0x0
   871                           
   872     0070                     UART_RX_config@baudrate:	
   873                           ; 2 bytes @ 0x0
   874                           
   875     0070                     UART_TX_config@baudrate:	
   876                           ; 2 bytes @ 0x0
   877                           
   878     0070                     ___lwdiv@divisor:	
   879                           ; 2 bytes @ 0x0
   880                           
   881     0070                     ___lldiv@divisor:	
   882                           ; 2 bytes @ 0x0
   883                           
   884     0070                     ___flge@ff1:	
   885                           ; 4 bytes @ 0x0
   886                           
   887     0070                     ___flneg@f1:	
   888                           ; 4 bytes @ 0x0
   889                           
   890     0070                     ___fltol@f1:	
   891                           ; 4 bytes @ 0x0
   892                           
   893     0070                     ___fldiv@a:	
   894                           ; 4 bytes @ 0x0
   895                           
   896     0070                     ___xxtofl@val:	
   897                           ; 4 bytes @ 0x0
   898                           
   899                           
   900                           ; 4 bytes @ 0x0
   901     0070                     	ds	1
   902     0071                     ??_Lcd_Cmd:
   903     0071                     ??_Lcd_Write_Char:	
   904                           ; 1 bytes @ 0x1
   905                           
   906                           
   907                           ; 1 bytes @ 0x1
   908     0071                     	ds	1
   909     0072                     ??_AHT10_Soft_Reset:
   910     0072                     ??_TSL2561_Init:	
   911                           ; 1 bytes @ 0x2
   912                           
   913     0072                     ??_UART_TX_config:	
   914                           ; 1 bytes @ 0x2
   915                           
   916     0072                     ??_UART_RX_config:	
   917                           ; 1 bytes @ 0x2
   918                           
   919     0072                     ??_NumtoChar:	
   920                           ; 1 bytes @ 0x2
   921                           
   922     0072                     ??__Umul8_16:	
   923                           ; 1 bytes @ 0x2
   924                           
   925     0072                     ??_I2C_Master_Write:	
   926                           ; 1 bytes @ 0x2
   927                           
   928     0072                     ??_I2C_Master_Read:	
   929                           ; 1 bytes @ 0x2
   930                           
   931     0072                     Lcd_Write_Char@a:	
   932                           ; 1 bytes @ 0x2
   933                           
   934     0072                     cadena@cont0:	
   935                           ; 1 bytes @ 0x2
   936                           
   937     0072                     ___lwdiv@dividend:	
   938                           ; 2 bytes @ 0x2
   939                           
   940                           
   941                           ; 2 bytes @ 0x2
   942     0072                     	ds	1
   943     0073                     ?_Lcd_Write_String:
   944     0073                     Lcd_Cmd@a:	
   945                           ; 1 bytes @ 0x3
   946                           
   947     0073                     Lcd_Write_String@a:	
   948                           ; 1 bytes @ 0x3
   949                           
   950                           
   951                           ; 2 bytes @ 0x3
   952     0073                     	ds	1
   953     0074                     ?_Lcd_Set_Cursor:
   954     0074                     ??_Lcd_Init:	
   955                           ; 1 bytes @ 0x4
   956                           
   957     0074                     ??___flneg:	
   958                           ; 1 bytes @ 0x4
   959                           
   960     0074                     ??___fltol:	
   961                           ; 1 bytes @ 0x4
   962                           
   963     0074                     ??___lwdiv:	
   964                           ; 1 bytes @ 0x4
   965                           
   966     0074                     ??___xxtofl:	
   967                           ; 1 bytes @ 0x4
   968                           
   969     0074                     Lcd_Set_Cursor@b:	
   970                           ; 1 bytes @ 0x4
   971                           
   972     0074                     I2C_Master_Read@temp:	
   973                           ; 1 bytes @ 0x4
   974                           
   975     0074                     cadena@i:	
   976                           ; 2 bytes @ 0x4
   977                           
   978     0074                     __Umul8_16@product:	
   979                           ; 2 bytes @ 0x4
   980                           
   981     0074                     ___lldiv@dividend:	
   982                           ; 2 bytes @ 0x4
   983                           
   984     0074                     ___flge@ff2:	
   985                           ; 4 bytes @ 0x4
   986                           
   987     0074                     ___fldiv@b:	
   988                           ; 4 bytes @ 0x4
   989                           
   990                           
   991                           ; 4 bytes @ 0x4
   992     0074                     	ds	1
   993     0075                     ??_Lcd_Set_Cursor:
   994     0075                     ??_Lcd_Write_String:	
   995                           ; 1 bytes @ 0x5
   996                           
   997     0075                     Lcd_Set_Cursor@a:	
   998                           ; 1 bytes @ 0x5
   999                           
  1000     0075                     ___lwdiv@quotient:	
  1001                           ; 1 bytes @ 0x5
  1002                           
  1003                           
  1004                           ; 2 bytes @ 0x5
  1005     0075                     	ds	1
  1006     0076                     ??_AHT10_Init:
  1007     0076                     Lcd_Set_Cursor@temp:	
  1008                           ; 1 bytes @ 0x6
  1009                           
  1010     0076                     cadena@txt:	
  1011                           ; 1 bytes @ 0x6
  1012                           
  1013     0076                     __Umul8_16@word_mpld:	
  1014                           ; 1 bytes @ 0x6
  1015                           
  1016                           
  1017                           ; 2 bytes @ 0x6
  1018     0076                     	ds	1
  1019     0077                     ??_SendESP:
  1020     0077                     ___lwdiv@counter:	
  1021                           ; 1 bytes @ 0x7
  1022                           
  1023                           
  1024                           ; 1 bytes @ 0x7
  1025     0077                     	ds	1
  1026     0078                     ??___lldiv:
  1027     0078                     ??___flge:	
  1028                           ; 1 bytes @ 0x8
  1029                           
  1030     0078                     ??___fldiv:	
  1031                           ; 1 bytes @ 0x8
  1032                           
  1033     0078                     ?___lwmod:	
  1034                           ; 1 bytes @ 0x8
  1035                           
  1036     0078                     ___fltol@sign1:	
  1037                           ; 2 bytes @ 0x8
  1038                           
  1039     0078                     __Umul8_16@multiplier:	
  1040                           ; 1 bytes @ 0x8
  1041                           
  1042     0078                     ___xxtofl@sign:	
  1043                           ; 1 bytes @ 0x8
  1044                           
  1045     0078                     Lcd_Write_String@i:	
  1046                           ; 1 bytes @ 0x8
  1047                           
  1048     0078                     ___lwmod@divisor:	
  1049                           ; 2 bytes @ 0x8
  1050                           
  1051                           
  1052                           ; 2 bytes @ 0x8
  1053     0078                     	ds	1
  1054     0079                     ___fltol@exp1:
  1055     0079                     ___xxtofl@exp:	
  1056                           ; 1 bytes @ 0x9
  1057                           
  1058     0079                     ___lldiv@quotient:	
  1059                           ; 1 bytes @ 0x9
  1060                           
  1061                           
  1062                           ; 4 bytes @ 0x9
  1063     0079                     	ds	1
  1064     007A                     ??_RTC:
  1065     007A                     ??_DCOnOff:	
  1066                           ; 1 bytes @ 0xA
  1067                           
  1068     007A                     ___lwmod@dividend:	
  1069                           ; 1 bytes @ 0xA
  1070                           
  1071     007A                     ___xxtofl@arg:	
  1072                           ; 2 bytes @ 0xA
  1073                           
  1074                           
  1075                           ; 4 bytes @ 0xA
  1076     007A                     	ds	2
  1077     007C                     ??___lwmod:
  1078                           
  1079                           ; 1 bytes @ 0xC
  1080     007C                     	ds	1
  1081     007D                     ___lldiv@counter:
  1082     007D                     ___lwmod@counter:	
  1083                           ; 1 bytes @ 0xD
  1084                           
  1085                           
  1086                           ; 1 bytes @ 0xD
  1087     007D                     	ds	1
  1088     007E                     ??_setup:
  1089     007E                     ??_main:	
  1090                           ; 1 bytes @ 0xE
  1091                           
  1092     007E                     ??___flsub:	
  1093                           ; 1 bytes @ 0xE
  1094                           
  1095                           
  1096                           	psect	cstackBANK0
  1097     0020                     __pcstackBANK0:	
  1098                           ; 1 bytes @ 0xE
  1099                           
  1100     0020                     ?_I2C_Master_Init:
  1101     0020                     ?_sprintf:	
  1102                           ; 1 bytes @ 0x0
  1103                           
  1104     0020                     sprintf@f:	
  1105                           ; 2 bytes @ 0x0
  1106                           
  1107     0020                     I2C_Master_Init@c:	
  1108                           ; 1 bytes @ 0x0
  1109                           
  1110     0020                     ___fldiv@rem:	
  1111                           ; 4 bytes @ 0x0
  1112                           
  1113                           
  1114                           ; 4 bytes @ 0x0
  1115     0020                     	ds	3
  1116     0023                     ??_sprintf:
  1117                           
  1118                           ; 1 bytes @ 0x3
  1119     0023                     	ds	1
  1120     0024                     ??_I2C_Master_Init:
  1121     0024                     ___fldiv@sign:	
  1122                           ; 1 bytes @ 0x4
  1123                           
  1124                           
  1125                           ; 1 bytes @ 0x4
  1126     0024                     	ds	1
  1127     0025                     ___fldiv@new_exp:
  1128                           
  1129                           ; 2 bytes @ 0x5
  1130     0025                     	ds	1
  1131     0026                     sprintf@flag:
  1132                           
  1133                           ; 1 bytes @ 0x6
  1134     0026                     	ds	1
  1135     0027                     sprintf@ap:
  1136     0027                     ___fldiv@grs:	
  1137                           ; 1 bytes @ 0x7
  1138                           
  1139                           
  1140                           ; 4 bytes @ 0x7
  1141     0027                     	ds	1
  1142     0028                     sprintf@val:
  1143                           
  1144                           ; 2 bytes @ 0x8
  1145     0028                     	ds	2
  1146     002A                     sprintf@prec:
  1147                           
  1148                           ; 1 bytes @ 0xA
  1149     002A                     	ds	1
  1150     002B                     sprintf@sp:
  1151     002B                     ___fldiv@bexp:	
  1152                           ; 1 bytes @ 0xB
  1153                           
  1154                           
  1155                           ; 1 bytes @ 0xB
  1156     002B                     	ds	1
  1157     002C                     sprintf@c:
  1158     002C                     ___fldiv@aexp:	
  1159                           ; 1 bytes @ 0xC
  1160                           
  1161                           
  1162                           ; 1 bytes @ 0xC
  1163     002C                     	ds	1
  1164     002D                     ??_TSL2561_Read:
  1165     002D                     ?___flmul:	
  1166                           ; 1 bytes @ 0xD
  1167                           
  1168     002D                     ___flmul@b:	
  1169                           ; 4 bytes @ 0xD
  1170                           
  1171                           
  1172                           ; 4 bytes @ 0xD
  1173     002D                     	ds	4
  1174     0031                     ___flmul@a:
  1175                           
  1176                           ; 4 bytes @ 0x11
  1177     0031                     	ds	4
  1178     0035                     ??___flmul:
  1179                           
  1180                           ; 1 bytes @ 0x15
  1181     0035                     	ds	5
  1182     003A                     ___flmul@sign:
  1183                           
  1184                           ; 1 bytes @ 0x1A
  1185     003A                     	ds	1
  1186     003B                     ___flmul@grs:
  1187                           
  1188                           ; 4 bytes @ 0x1B
  1189     003B                     	ds	4
  1190     003F                     ___flmul@aexp:
  1191                           
  1192                           ; 1 bytes @ 0x1F
  1193     003F                     	ds	1
  1194     0040                     ___flmul@bexp:
  1195                           
  1196                           ; 1 bytes @ 0x20
  1197     0040                     	ds	1
  1198     0041                     ___flmul@prod:
  1199                           
  1200                           ; 4 bytes @ 0x21
  1201     0041                     	ds	4
  1202     0045                     ___flmul@temp:
  1203                           
  1204                           ; 2 bytes @ 0x25
  1205     0045                     	ds	2
  1206     0047                     ?___fladd:
  1207     0047                     ___fladd@b:	
  1208                           ; 4 bytes @ 0x27
  1209                           
  1210                           
  1211                           ; 4 bytes @ 0x27
  1212     0047                     	ds	4
  1213     004B                     ___fladd@a:
  1214                           
  1215                           ; 4 bytes @ 0x2B
  1216     004B                     	ds	4
  1217     004F                     ??___fladd:
  1218                           
  1219                           ; 1 bytes @ 0x2F
  1220     004F                     	ds	8
  1221     0057                     ___fladd@signs:
  1222                           
  1223                           ; 1 bytes @ 0x37
  1224     0057                     	ds	1
  1225     0058                     ___fladd@aexp:
  1226                           
  1227                           ; 1 bytes @ 0x38
  1228     0058                     	ds	1
  1229     0059                     ___fladd@bexp:
  1230                           
  1231                           ; 1 bytes @ 0x39
  1232     0059                     	ds	1
  1233     005A                     ___fladd@grs:
  1234                           
  1235                           ; 1 bytes @ 0x3A
  1236     005A                     	ds	1
  1237     005B                     ?___flsub:
  1238     005B                     ___flsub@a:	
  1239                           ; 4 bytes @ 0x3B
  1240                           
  1241                           
  1242                           ; 4 bytes @ 0x3B
  1243     005B                     	ds	4
  1244     005F                     ___flsub@b:
  1245                           
  1246                           ; 4 bytes @ 0x3F
  1247     005F                     	ds	4
  1248     0063                     ?_floattostr:
  1249     0063                     floattostr@numero_:	
  1250                           ; 1 bytes @ 0x43
  1251                           
  1252                           
  1253                           ; 4 bytes @ 0x43
  1254     0063                     	ds	4
  1255     0067                     floattostr@cadena_:
  1256                           
  1257                           ; 1 bytes @ 0x47
  1258     0067                     	ds	1
  1259     0068                     floattostr@decimales_:
  1260                           
  1261                           ; 1 bytes @ 0x48
  1262     0068                     	ds	1
  1263     0069                     ??_floattostr:
  1264                           
  1265                           ; 1 bytes @ 0x49
  1266     0069                     	ds	1
  1267                           
  1268                           	psect	maintext
  1269     1314                     __pmaintext:	
  1270 ;;
  1271 ;;Main: autosize = 0, tempsize = 0, incstack = 0, save=0
  1272 ;;
  1273 ;; *************** function _main *****************
  1274 ;; Defined at:
  1275 ;;		line 87 in file "Dig2ProMaster.c"
  1276 ;; Parameters:    Size  Location     Type
  1277 ;;		None
  1278 ;; Auto vars:     Size  Location     Type
  1279 ;;		None
  1280 ;; Return value:  Size  Location     Type
  1281 ;;                  1    wreg      void 
  1282 ;; Registers used:
  1283 ;;		wreg, fsr0l, fsr0h, status,2, status,0, btemp+1, pclath, cstack
  1284 ;; Tracked objects:
  1285 ;;		On entry : B00/0
  1286 ;;		On exit  : 0/0
  1287 ;;		Unchanged: 0/0
  1288 ;; Data sizes:     COMMON   BANK0   BANK1   BANK3   BANK2
  1289 ;;      Params:         0       0       0       0       0
  1290 ;;      Locals:         0       0       0       0       0
  1291 ;;      Temps:          0       0       0       0       0
  1292 ;;      Totals:         0       0       0       0       0
  1293 ;;Total ram usage:        0 bytes
  1294 ;; Hardware stack levels required when called: 4
  1295 ;; This function calls:
  1296 ;;		_AHT10_Init
  1297 ;;		_AHT10_Read
  1298 ;;		_AHT10_Soft_Reset
  1299 ;;		_DCOnOff
  1300 ;;		_Lcd_Init
  1301 ;;		_RTC
  1302 ;;		_SendESP
  1303 ;;		_TSL2561_Init
  1304 ;;		_TSL2561_Read
  1305 ;;		_setup
  1306 ;; This function is called by:
  1307 ;;		Startup code after reset
  1308 ;; This function uses a non-reentrant model
  1309 ;;
  1310                           
  1311     1314                     _main:	
  1312                           ;psect for function _main
  1313                           
  1314     1314                     l3533:	
  1315                           ;incstack = 0
  1316                           ; Regs used in _main: [wreg-fsr0h+status,2+status,0+btemp+1+pclath+cstack]
  1317                           
  1318                           
  1319                           ;Dig2ProMaster.c: 88:     setup();
  1320     1314  160A  118A  22DF  160A  118A  	fcall	_setup
  1321                           
  1322                           ;Dig2ProMaster.c: 89:     Lcd_Init();
  1323     1319  120A  158A  200B  160A  118A  	fcall	_Lcd_Init
  1324                           
  1325                           ;Dig2ProMaster.c: 90:     AHT10_Soft_Reset();
  1326     131E  160A  118A  22B0  160A  118A  	fcall	_AHT10_Soft_Reset
  1327                           
  1328                           ;Dig2ProMaster.c: 91:     AHT10_Init();
  1329     1323  160A  118A  25BE  160A  118A  	fcall	_AHT10_Init
  1330                           
  1331                           ;Dig2ProMaster.c: 92:     TSL2561_Init();
  1332     1328  160A  118A  24FB  160A  118A  	fcall	_TSL2561_Init
  1333     132D                     l3535:
  1334                           
  1335                           ;Dig2ProMaster.c: 96:         AHT10_Read();
  1336     132D  120A  158A  220B  160A  118A  	fcall	_AHT10_Read
  1337     1332                     l3537:
  1338                           
  1339                           ;Dig2ProMaster.c: 98:         TSL2561_Read();
  1340     1332  120A  158A  2111  160A  118A  	fcall	_TSL2561_Read
  1341     1337                     l3539:
  1342                           
  1343                           ;Dig2ProMaster.c: 101:         RTC();
  1344     1337  120A  118A  206B  160A  118A  	fcall	_RTC
  1345     133C                     l3541:
  1346                           
  1347                           ;Dig2ProMaster.c: 102:         SendESP();
  1348     133C  160A  118A  2553  160A  118A  	fcall	_SendESP
  1349                           
  1350                           ;Dig2ProMaster.c: 103:         DCOnOff();
  1351     1341  160A  118A  2257  160A  118A  	fcall	_DCOnOff
  1352     1346  2B2D               	goto	l3535
  1353     1347  120A  118A  2800   	ljmp	start
  1354     134A                     __end_of_main:
  1355                           
  1356                           	psect	text1
  1357     12DF                     __ptext1:	
  1358 ;; *************** function _setup *****************
  1359 ;; Defined at:
  1360 ;;		line 117 in file "Dig2ProMaster.c"
  1361 ;; Parameters:    Size  Location     Type
  1362 ;;		None
  1363 ;; Auto vars:     Size  Location     Type
  1364 ;;		None
  1365 ;; Return value:  Size  Location     Type
  1366 ;;                  1    wreg      void 
  1367 ;; Registers used:
  1368 ;;		wreg, status,2, status,0, pclath, cstack
  1369 ;; Tracked objects:
  1370 ;;		On entry : 0/0
  1371 ;;		On exit  : 0/0
  1372 ;;		Unchanged: 0/0
  1373 ;; Data sizes:     COMMON   BANK0   BANK1   BANK3   BANK2
  1374 ;;      Params:         0       0       0       0       0
  1375 ;;      Locals:         0       0       0       0       0
  1376 ;;      Temps:          0       0       0       0       0
  1377 ;;      Totals:         0       0       0       0       0
  1378 ;;Total ram usage:        0 bytes
  1379 ;; Hardware stack levels used: 1
  1380 ;; Hardware stack levels required when called: 2
  1381 ;; This function calls:
  1382 ;;		_I2C_Master_Init
  1383 ;;		_UART_RX_config
  1384 ;;		_UART_TX_config
  1385 ;; This function is called by:
  1386 ;;		_main
  1387 ;; This function uses a non-reentrant model
  1388 ;;
  1389                           
  1390     12DF                     _setup:	
  1391                           ;psect for function _setup
  1392                           
  1393     12DF                     l3337:	
  1394                           ;incstack = 0
  1395                           ; Regs used in _setup: [wreg+status,2+status,0+pclath+cstack]
  1396                           
  1397                           
  1398                           ;Dig2ProMaster.c: 118:     ANSEL = 0;
  1399     12DF  1683               	bsf	3,5	;RP0=1, select bank3
  1400     12E0  1703               	bsf	3,6	;RP1=1, select bank3
  1401     12E1  0188               	clrf	8	;volatile
  1402                           
  1403                           ;Dig2ProMaster.c: 119:     ANSELH = 0;
  1404     12E2  0189               	clrf	9	;volatile
  1405                           
  1406                           ;Dig2ProMaster.c: 120:     TRISA = 0;
  1407     12E3  1683               	bsf	3,5	;RP0=1, select bank1
  1408     12E4  1303               	bcf	3,6	;RP1=0, select bank1
  1409     12E5  0185               	clrf	5	;volatile
  1410                           
  1411                           ;Dig2ProMaster.c: 121:     TRISB = 0;
  1412     12E6  0186               	clrf	6	;volatile
  1413                           
  1414                           ;Dig2ProMaster.c: 122:     TRISD = 0;
  1415     12E7  0188               	clrf	8	;volatile
  1416                           
  1417                           ;Dig2ProMaster.c: 123:     TRISE = 0;
  1418     12E8  0189               	clrf	9	;volatile
  1419                           
  1420                           ;Dig2ProMaster.c: 125:     PORTA = 0;
  1421     12E9  1283               	bcf	3,5	;RP0=0, select bank0
  1422     12EA  1303               	bcf	3,6	;RP1=0, select bank0
  1423     12EB  0185               	clrf	5	;volatile
  1424                           
  1425                           ;Dig2ProMaster.c: 126:     PORTB = 0;
  1426     12EC  0186               	clrf	6	;volatile
  1427                           
  1428                           ;Dig2ProMaster.c: 127:     PORTD = 0;
  1429     12ED  0188               	clrf	8	;volatile
  1430                           
  1431                           ;Dig2ProMaster.c: 128:     PORTE = 0;
  1432     12EE  0189               	clrf	9	;volatile
  1433     12EF                     l3339:
  1434                           
  1435                           ;Dig2ProMaster.c: 130:     I2C_Master_Init(100000);
  1436     12EF  3000               	movlw	0
  1437     12F0  00A3               	movwf	I2C_Master_Init@c+3
  1438     12F1  3001               	movlw	1
  1439     12F2  00A2               	movwf	I2C_Master_Init@c+2
  1440     12F3  3086               	movlw	134
  1441     12F4  00A1               	movwf	I2C_Master_Init@c+1
  1442     12F5  30A0               	movlw	160
  1443     12F6  00A0               	movwf	I2C_Master_Init@c
  1444     12F7  160A  118A  234A  160A  118A  	fcall	_I2C_Master_Init
  1445     12FC                     l3341:
  1446                           
  1447                           ;Dig2ProMaster.c: 131:     OSCCONbits.IRCF = 0b111;
  1448     12FC  3070               	movlw	112
  1449     12FD  1683               	bsf	3,5	;RP0=1, select bank1
  1450     12FE  1303               	bcf	3,6	;RP1=0, select bank1
  1451     12FF  048F               	iorwf	15,f	;volatile
  1452     1300                     l3343:
  1453                           
  1454                           ;Dig2ProMaster.c: 132:     OSCCONbits.SCS = 1;
  1455     1300  140F               	bsf	15,0	;volatile
  1456     1301                     l3345:
  1457                           
  1458                           ;Dig2ProMaster.c: 134:     UART_TX_config(207);
  1459     1301  30CF               	movlw	207
  1460     1302  00F0               	movwf	UART_TX_config@baudrate
  1461     1303  3000               	movlw	0
  1462     1304  00F1               	movwf	UART_TX_config@baudrate+1
  1463     1305  160A  118A  219A  160A  118A  	fcall	_UART_TX_config
  1464     130A                     l3347:
  1465                           
  1466                           ;Dig2ProMaster.c: 135:     UART_RX_config(207);
  1467     130A  30CF               	movlw	207
  1468     130B  00F0               	movwf	UART_RX_config@baudrate
  1469     130C  3000               	movlw	0
  1470     130D  00F1               	movwf	UART_RX_config@baudrate+1
  1471     130E  160A  118A  21A8  160A  118A  	fcall	_UART_RX_config
  1472     1313                     l286:
  1473     1313  0008               	return
  1474     1314                     __end_of_setup:
  1475                           
  1476                           	psect	text2
  1477     119A                     __ptext2:	
  1478 ;; *************** function _UART_TX_config *****************
  1479 ;; Defined at:
  1480 ;;		line 20 in file "Usart.c"
  1481 ;; Parameters:    Size  Location     Type
  1482 ;;  baudrate        2    0[COMMON] unsigned int 
  1483 ;; Auto vars:     Size  Location     Type
  1484 ;;		None
  1485 ;; Return value:  Size  Location     Type
  1486 ;;                  1    wreg      void 
  1487 ;; Registers used:
  1488 ;;		wreg, status,2
  1489 ;; Tracked objects:
  1490 ;;		On entry : 0/0
  1491 ;;		On exit  : 0/0
  1492 ;;		Unchanged: 0/0
  1493 ;; Data sizes:     COMMON   BANK0   BANK1   BANK3   BANK2
  1494 ;;      Params:         2       0       0       0       0
  1495 ;;      Locals:         0       0       0       0       0
  1496 ;;      Temps:          0       0       0       0       0
  1497 ;;      Totals:         2       0       0       0       0
  1498 ;;Total ram usage:        2 bytes
  1499 ;; Hardware stack levels used: 1
  1500 ;; This function calls:
  1501 ;;		Nothing
  1502 ;; This function is called by:
  1503 ;;		_setup
  1504 ;; This function uses a non-reentrant model
  1505 ;;
  1506                           
  1507     119A                     _UART_TX_config:	
  1508                           ;psect for function _UART_TX_config
  1509                           
  1510     119A                     l3173:	
  1511                           ;incstack = 0
  1512                           ; Regs used in _UART_TX_config: [wreg+status,2]
  1513                           
  1514                           
  1515                           ;Usart.c: 21:     TXSTAbits.SYNC = 0;
  1516     119A  1683               	bsf	3,5	;RP0=1, select bank1
  1517     119B  1303               	bcf	3,6	;RP1=0, select bank1
  1518     119C  1218               	bcf	24,4	;volatile
  1519                           
  1520                           ;Usart.c: 22:     TXSTAbits.BRGH = 1;
  1521     119D  1518               	bsf	24,2	;volatile
  1522                           
  1523                           ;Usart.c: 24:     BAUDCTLbits.BRG16 = 1;
  1524     119E  1683               	bsf	3,5	;RP0=1, select bank3
  1525     119F  1703               	bsf	3,6	;RP1=1, select bank3
  1526     11A0  1587               	bsf	7,3	;volatile
  1527     11A1                     l3175:
  1528                           
  1529                           ;Usart.c: 26:     SPBRG = baudrate;
  1530     11A1  0870               	movf	UART_TX_config@baudrate,w
  1531     11A2  1683               	bsf	3,5	;RP0=1, select bank1
  1532     11A3  1303               	bcf	3,6	;RP1=0, select bank1
  1533     11A4  0099               	movwf	25	;volatile
  1534     11A5                     l3177:
  1535                           
  1536                           ;Usart.c: 27:     SPBRGH = 0;
  1537     11A5  019A               	clrf	26	;volatile
  1538     11A6                     l3179:
  1539                           
  1540                           ;Usart.c: 29:     TXSTAbits.TXEN = 1;
  1541     11A6  1698               	bsf	24,5	;volatile
  1542     11A7                     l362:
  1543     11A7  0008               	return
  1544     11A8                     __end_of_UART_TX_config:
  1545                           
  1546                           	psect	text3
  1547     11A8                     __ptext3:	
  1548 ;; *************** function _UART_RX_config *****************
  1549 ;; Defined at:
  1550 ;;		line 3 in file "Usart.c"
  1551 ;; Parameters:    Size  Location     Type
  1552 ;;  baudrate        2    0[COMMON] unsigned int 
  1553 ;; Auto vars:     Size  Location     Type
  1554 ;;		None
  1555 ;; Return value:  Size  Location     Type
  1556 ;;                  1    wreg      void 
  1557 ;; Registers used:
  1558 ;;		wreg, status,2
  1559 ;; Tracked objects:
  1560 ;;		On entry : 0/0
  1561 ;;		On exit  : 0/0
  1562 ;;		Unchanged: 0/0
  1563 ;; Data sizes:     COMMON   BANK0   BANK1   BANK3   BANK2
  1564 ;;      Params:         2       0       0       0       0
  1565 ;;      Locals:         0       0       0       0       0
  1566 ;;      Temps:          0       0       0       0       0
  1567 ;;      Totals:         2       0       0       0       0
  1568 ;;Total ram usage:        2 bytes
  1569 ;; Hardware stack levels used: 1
  1570 ;; This function calls:
  1571 ;;		Nothing
  1572 ;; This function is called by:
  1573 ;;		_setup
  1574 ;; This function uses a non-reentrant model
  1575 ;;
  1576                           
  1577     11A8                     _UART_RX_config:	
  1578                           ;psect for function _UART_RX_config
  1579                           
  1580     11A8                     l3183:	
  1581                           ;incstack = 0
  1582                           ; Regs used in _UART_RX_config: [wreg+status,2]
  1583                           
  1584                           
  1585                           ;Usart.c: 5:     BAUDCTLbits.BRG16 = 1;
  1586     11A8  1683               	bsf	3,5	;RP0=1, select bank3
  1587     11A9  1703               	bsf	3,6	;RP1=1, select bank3
  1588     11AA  1587               	bsf	7,3	;volatile
  1589     11AB                     l3185:
  1590                           
  1591                           ;Usart.c: 7:     SPBRG = baudrate;
  1592     11AB  0870               	movf	UART_RX_config@baudrate,w
  1593     11AC  1683               	bsf	3,5	;RP0=1, select bank1
  1594     11AD  1303               	bcf	3,6	;RP1=0, select bank1
  1595     11AE  0099               	movwf	25	;volatile
  1596     11AF                     l3187:
  1597                           
  1598                           ;Usart.c: 8:     SPBRGH = 0;
  1599     11AF  019A               	clrf	26	;volatile
  1600     11B0                     l3189:
  1601                           
  1602                           ;Usart.c: 10:     RCSTAbits.SPEN = 1;
  1603     11B0  1283               	bcf	3,5	;RP0=0, select bank0
  1604     11B1  1303               	bcf	3,6	;RP1=0, select bank0
  1605     11B2  1798               	bsf	24,7	;volatile
  1606     11B3                     l3191:
  1607                           
  1608                           ;Usart.c: 11:     RCSTAbits.RX9 = 0;
  1609     11B3  1318               	bcf	24,6	;volatile
  1610     11B4                     l3193:
  1611                           
  1612                           ;Usart.c: 12:     RCSTAbits.CREN = 1;
  1613     11B4  1618               	bsf	24,4	;volatile
  1614     11B5                     l3195:
  1615                           
  1616                           ;Usart.c: 14:     PIR1bits.RCIF = 0;
  1617     11B5  128C               	bcf	12,5	;volatile
  1618     11B6                     l3197:
  1619                           
  1620                           ;Usart.c: 15:     PIE1bits.RCIE = 1;
  1621     11B6  1683               	bsf	3,5	;RP0=1, select bank1
  1622     11B7  1303               	bcf	3,6	;RP1=0, select bank1
  1623     11B8  168C               	bsf	12,5	;volatile
  1624     11B9                     l3199:
  1625                           
  1626                           ;Usart.c: 16:     INTCONbits.PEIE = 1;
  1627     11B9  170B               	bsf	11,6	;volatile
  1628     11BA                     l3201:
  1629                           
  1630                           ;Usart.c: 17:     INTCONbits.GIE = 1;
  1631     11BA  178B               	bsf	11,7	;volatile
  1632     11BB                     l359:
  1633     11BB  0008               	return
  1634     11BC                     __end_of_UART_RX_config:
  1635                           
  1636                           	psect	text4
  1637     134A                     __ptext4:	
  1638 ;; *************** function _I2C_Master_Init *****************
  1639 ;; Defined at:
  1640 ;;		line 5 in file "I2C.c"
  1641 ;; Parameters:    Size  Location     Type
  1642 ;;  c               4    0[BANK0 ] const unsigned long 
  1643 ;; Auto vars:     Size  Location     Type
  1644 ;;		None
  1645 ;; Return value:  Size  Location     Type
  1646 ;;                  1    wreg      void 
  1647 ;; Registers used:
  1648 ;;		wreg, status,2, status,0, pclath, cstack
  1649 ;; Tracked objects:
  1650 ;;		On entry : 0/0
  1651 ;;		On exit  : 0/0
  1652 ;;		Unchanged: 0/0
  1653 ;; Data sizes:     COMMON   BANK0   BANK1   BANK3   BANK2
  1654 ;;      Params:         0       4       0       0       0
  1655 ;;      Locals:         0       0       0       0       0
  1656 ;;      Temps:          0       4       0       0       0
  1657 ;;      Totals:         0       8       0       0       0
  1658 ;;Total ram usage:        8 bytes
  1659 ;; Hardware stack levels used: 1
  1660 ;; Hardware stack levels required when called: 1
  1661 ;; This function calls:
  1662 ;;		___lldiv
  1663 ;; This function is called by:
  1664 ;;		_setup
  1665 ;; This function uses a non-reentrant model
  1666 ;;
  1667                           
  1668     134A                     _I2C_Master_Init:	
  1669                           ;psect for function _I2C_Master_Init
  1670                           
  1671     134A                     l3019:	
  1672                           ;incstack = 0
  1673                           ; Regs used in _I2C_Master_Init: [wreg+status,2+status,0+pclath+cstack]
  1674                           
  1675                           
  1676                           ;I2C.c: 5: void I2C_Master_Init(const unsigned long c);I2C.c: 6: {;I2C.c: 7:     SSPCON 
      +                          = 0b00101000;
  1677     134A  3028               	movlw	40
  1678     134B  1283               	bcf	3,5	;RP0=0, select bank0
  1679     134C  1303               	bcf	3,6	;RP1=0, select bank0
  1680     134D  0094               	movwf	20	;volatile
  1681     134E                     l3021:
  1682                           
  1683                           ;I2C.c: 8:     SSPCON2 = 0;
  1684     134E  1683               	bsf	3,5	;RP0=1, select bank1
  1685     134F  1303               	bcf	3,6	;RP1=0, select bank1
  1686     1350  0191               	clrf	17	;volatile
  1687     1351                     l3023:
  1688                           
  1689                           ;I2C.c: 9:     SSPADD = (8000000/(4*c))-1;
  1690     1351  1283               	bcf	3,5	;RP0=0, select bank0
  1691     1352  1303               	bcf	3,6	;RP1=0, select bank0
  1692     1353  0820               	movf	I2C_Master_Init@c,w
  1693     1354  00A4               	movwf	??_I2C_Master_Init
  1694     1355  0821               	movf	I2C_Master_Init@c+1,w
  1695     1356  00A5               	movwf	??_I2C_Master_Init+1
  1696     1357  0822               	movf	I2C_Master_Init@c+2,w
  1697     1358  00A6               	movwf	??_I2C_Master_Init+2
  1698     1359  0823               	movf	I2C_Master_Init@c+3,w
  1699     135A  00A7               	movwf	??_I2C_Master_Init+3
  1700     135B  3002               	movlw	2
  1701     135C                     u3885:
  1702     135C  1003               	clrc
  1703     135D  0DA4               	rlf	??_I2C_Master_Init,f
  1704     135E  0DA5               	rlf	??_I2C_Master_Init+1,f
  1705     135F  0DA6               	rlf	??_I2C_Master_Init+2,f
  1706     1360  0DA7               	rlf	??_I2C_Master_Init+3,f
  1707     1361                     u3880:
  1708     1361  3EFF               	addlw	-1
  1709     1362  1D03               	skipz
  1710     1363  2B5C               	goto	u3885
  1711     1364  0827               	movf	??_I2C_Master_Init+3,w
  1712     1365  00F3               	movwf	___lldiv@divisor+3
  1713     1366  0826               	movf	??_I2C_Master_Init+2,w
  1714     1367  00F2               	movwf	___lldiv@divisor+2
  1715     1368  0825               	movf	??_I2C_Master_Init+1,w
  1716     1369  00F1               	movwf	___lldiv@divisor+1
  1717     136A  0824               	movf	??_I2C_Master_Init,w
  1718     136B  00F0               	movwf	___lldiv@divisor
  1719     136C  3000               	movlw	0
  1720     136D  00F7               	movwf	___lldiv@dividend+3
  1721     136E  307A               	movlw	122
  1722     136F  00F6               	movwf	___lldiv@dividend+2
  1723     1370  3012               	movlw	18
  1724     1371  00F5               	movwf	___lldiv@dividend+1
  1725     1372  3000               	movlw	0
  1726     1373  00F4               	movwf	___lldiv@dividend
  1727     1374  120A  118A  2005  160A  118A  	fcall	___lldiv
  1728     1379  0870               	movf	?___lldiv,w
  1729     137A  3EFF               	addlw	255
  1730     137B  1683               	bsf	3,5	;RP0=1, select bank1
  1731     137C  1303               	bcf	3,6	;RP1=0, select bank1
  1732     137D  0093               	movwf	19	;volatile
  1733     137E                     l3025:
  1734                           
  1735                           ;I2C.c: 10:     SSPSTAT = 0;
  1736     137E  0194               	clrf	20	;volatile
  1737     137F                     l3027:
  1738                           
  1739                           ;I2C.c: 11:     TRISCbits.TRISC3 = 1;
  1740     137F  1587               	bsf	7,3	;volatile
  1741     1380                     l3029:
  1742                           
  1743                           ;I2C.c: 12:     TRISCbits.TRISC4 = 1;
  1744     1380  1607               	bsf	7,4	;volatile
  1745     1381                     l29:
  1746     1381  0008               	return
  1747     1382                     __end_of_I2C_Master_Init:
  1748                           
  1749                           	psect	text5
  1750     0005                     __ptext5:	
  1751 ;; *************** function ___lldiv *****************
  1752 ;; Defined at:
  1753 ;;		line 5 in file "C:\Program Files\Microchip\xc8\v2.40\pic\sources\c90\common\__lldiv.c"
  1754 ;; Parameters:    Size  Location     Type
  1755 ;;  divisor         4    0[COMMON] unsigned long 
  1756 ;;  dividend        4    4[COMMON] unsigned long 
  1757 ;; Auto vars:     Size  Location     Type
  1758 ;;  quotient        4    9[COMMON] unsigned long 
  1759 ;;  counter         1   13[COMMON] unsigned char 
  1760 ;; Return value:  Size  Location     Type
  1761 ;;                  4    0[COMMON] unsigned long 
  1762 ;; Registers used:
  1763 ;;		wreg, status,2, status,0
  1764 ;; Tracked objects:
  1765 ;;		On entry : 0/0
  1766 ;;		On exit  : 0/0
  1767 ;;		Unchanged: 0/0
  1768 ;; Data sizes:     COMMON   BANK0   BANK1   BANK3   BANK2
  1769 ;;      Params:         8       0       0       0       0
  1770 ;;      Locals:         5       0       0       0       0
  1771 ;;      Temps:          1       0       0       0       0
  1772 ;;      Totals:        14       0       0       0       0
  1773 ;;Total ram usage:       14 bytes
  1774 ;; Hardware stack levels used: 1
  1775 ;; This function calls:
  1776 ;;		Nothing
  1777 ;; This function is called by:
  1778 ;;		_I2C_Master_Init
  1779 ;; This function uses a non-reentrant model
  1780 ;;
  1781                           
  1782     0005                     ___lldiv:	
  1783                           ;psect for function ___lldiv
  1784                           
  1785     0005                     l2551:	
  1786                           ;incstack = 0
  1787                           ; Regs used in ___lldiv: [wreg+status,2+status,0]
  1788                           
  1789     0005  3000               	movlw	0
  1790     0006  00FC               	movwf	___lldiv@quotient+3
  1791     0007  3000               	movlw	0
  1792     0008  00FB               	movwf	___lldiv@quotient+2
  1793     0009  3000               	movlw	0
  1794     000A  00FA               	movwf	___lldiv@quotient+1
  1795     000B  3000               	movlw	0
  1796     000C  00F9               	movwf	___lldiv@quotient
  1797     000D  0873               	movf	___lldiv@divisor+3,w
  1798     000E  0472               	iorwf	___lldiv@divisor+2,w
  1799     000F  0471               	iorwf	___lldiv@divisor+1,w
  1800     0010  0470               	iorwf	___lldiv@divisor,w
  1801     0011  1903               	skipnz
  1802     0012  2814               	goto	u2691
  1803     0013  2815               	goto	u2690
  1804     0014                     u2691:
  1805     0014  2862               	goto	l2571
  1806     0015                     u2690:
  1807     0015                     l2553:
  1808     0015  01FD               	clrf	___lldiv@counter
  1809     0016  0AFD               	incf	___lldiv@counter,f
  1810     0017  2825               	goto	l2557
  1811     0018                     l2555:
  1812     0018  3001               	movlw	1
  1813     0019  00F8               	movwf	??___lldiv
  1814     001A                     u2705:
  1815     001A  1003               	clrc
  1816     001B  0DF0               	rlf	___lldiv@divisor,f
  1817     001C  0DF1               	rlf	___lldiv@divisor+1,f
  1818     001D  0DF2               	rlf	___lldiv@divisor+2,f
  1819     001E  0DF3               	rlf	___lldiv@divisor+3,f
  1820     001F  0BF8               	decfsz	??___lldiv,f
  1821     0020  281A               	goto	u2705
  1822     0021  3001               	movlw	1
  1823     0022  00F8               	movwf	??___lldiv
  1824     0023  0878               	movf	??___lldiv,w
  1825     0024  07FD               	addwf	___lldiv@counter,f
  1826     0025                     l2557:
  1827     0025  1FF3               	btfss	___lldiv@divisor+3,7
  1828     0026  2828               	goto	u2711
  1829     0027  2829               	goto	u2710
  1830     0028                     u2711:
  1831     0028  2818               	goto	l2555
  1832     0029                     u2710:
  1833     0029                     l2559:
  1834     0029  3001               	movlw	1
  1835     002A  00F8               	movwf	??___lldiv
  1836     002B                     u2725:
  1837     002B  1003               	clrc
  1838     002C  0DF9               	rlf	___lldiv@quotient,f
  1839     002D  0DFA               	rlf	___lldiv@quotient+1,f
  1840     002E  0DFB               	rlf	___lldiv@quotient+2,f
  1841     002F  0DFC               	rlf	___lldiv@quotient+3,f
  1842     0030  0BF8               	decfsz	??___lldiv,f
  1843     0031  282B               	goto	u2725
  1844     0032                     l2561:
  1845     0032  0873               	movf	___lldiv@divisor+3,w
  1846     0033  0277               	subwf	___lldiv@dividend+3,w
  1847     0034  1D03               	skipz
  1848     0035  2840               	goto	u2735
  1849     0036  0872               	movf	___lldiv@divisor+2,w
  1850     0037  0276               	subwf	___lldiv@dividend+2,w
  1851     0038  1D03               	skipz
  1852     0039  2840               	goto	u2735
  1853     003A  0871               	movf	___lldiv@divisor+1,w
  1854     003B  0275               	subwf	___lldiv@dividend+1,w
  1855     003C  1D03               	skipz
  1856     003D  2840               	goto	u2735
  1857     003E  0870               	movf	___lldiv@divisor,w
  1858     003F  0274               	subwf	___lldiv@dividend,w
  1859     0040                     u2735:
  1860     0040  1C03               	skipc
  1861     0041  2843               	goto	u2731
  1862     0042  2844               	goto	u2730
  1863     0043                     u2731:
  1864     0043  2853               	goto	l2567
  1865     0044                     u2730:
  1866     0044                     l2563:
  1867     0044  0870               	movf	___lldiv@divisor,w
  1868     0045  02F4               	subwf	___lldiv@dividend,f
  1869     0046  0871               	movf	___lldiv@divisor+1,w
  1870     0047  1C03               	skipc
  1871     0048  0F71               	incfsz	___lldiv@divisor+1,w
  1872     0049  02F5               	subwf	___lldiv@dividend+1,f
  1873     004A  0872               	movf	___lldiv@divisor+2,w
  1874     004B  1C03               	skipc
  1875     004C  0F72               	incfsz	___lldiv@divisor+2,w
  1876     004D  02F6               	subwf	___lldiv@dividend+2,f
  1877     004E  0873               	movf	___lldiv@divisor+3,w
  1878     004F  1C03               	skipc
  1879     0050  0F73               	incfsz	___lldiv@divisor+3,w
  1880     0051  02F7               	subwf	___lldiv@dividend+3,f
  1881     0052                     l2565:
  1882     0052  1479               	bsf	___lldiv@quotient,0
  1883     0053                     l2567:
  1884     0053  3001               	movlw	1
  1885     0054                     u2745:
  1886     0054  1003               	clrc
  1887     0055  0CF3               	rrf	___lldiv@divisor+3,f
  1888     0056  0CF2               	rrf	___lldiv@divisor+2,f
  1889     0057  0CF1               	rrf	___lldiv@divisor+1,f
  1890     0058  0CF0               	rrf	___lldiv@divisor,f
  1891     0059  3EFF               	addlw	-1
  1892     005A  1D03               	skipz
  1893     005B  2854               	goto	u2745
  1894     005C                     l2569:
  1895     005C  3001               	movlw	1
  1896     005D  02FD               	subwf	___lldiv@counter,f
  1897     005E  1D03               	btfss	3,2
  1898     005F  2861               	goto	u2751
  1899     0060  2862               	goto	u2750
  1900     0061                     u2751:
  1901     0061  2829               	goto	l2559
  1902     0062                     u2750:
  1903     0062                     l2571:
  1904     0062  087C               	movf	___lldiv@quotient+3,w
  1905     0063  00F3               	movwf	?___lldiv+3
  1906     0064  087B               	movf	___lldiv@quotient+2,w
  1907     0065  00F2               	movwf	?___lldiv+2
  1908     0066  087A               	movf	___lldiv@quotient+1,w
  1909     0067  00F1               	movwf	?___lldiv+1
  1910     0068  0879               	movf	___lldiv@quotient,w
  1911     0069  00F0               	movwf	?___lldiv
  1912     006A                     l515:
  1913     006A  0008               	return
  1914     006B                     __end_of___lldiv:
  1915                           
  1916                           	psect	text6
  1917     0911                     __ptext6:	
  1918 ;; *************** function _TSL2561_Read *****************
  1919 ;; Defined at:
  1920 ;;		line 312 in file "Dig2ProMaster.c"
  1921 ;; Parameters:    Size  Location     Type
  1922 ;;		None
  1923 ;; Auto vars:     Size  Location     Type
  1924 ;;		None
  1925 ;; Return value:  Size  Location     Type
  1926 ;;                  1    wreg      void 
  1927 ;; Registers used:
  1928 ;;		wreg, fsr0l, fsr0h, status,2, status,0, btemp+1, pclath, cstack
  1929 ;; Tracked objects:
  1930 ;;		On entry : 0/0
  1931 ;;		On exit  : 0/0
  1932 ;;		Unchanged: 0/0
  1933 ;; Data sizes:     COMMON   BANK0   BANK1   BANK3   BANK2
  1934 ;;      Params:         0       0       0       0       0
  1935 ;;      Locals:         0       0       0       0       0
  1936 ;;      Temps:          0       4       0       0       0
  1937 ;;      Totals:         0       4       0       0       0
  1938 ;;Total ram usage:        4 bytes
  1939 ;; Hardware stack levels used: 1
  1940 ;; Hardware stack levels required when called: 3
  1941 ;; This function calls:
  1942 ;;		_I2C_Master_Read
  1943 ;;		_I2C_Master_RepeatedStart
  1944 ;;		_I2C_Master_Start
  1945 ;;		_I2C_Master_Stop
  1946 ;;		_I2C_Master_Write
  1947 ;;		_Lcd_Set_Cursor
  1948 ;;		_Lcd_Write_String
  1949 ;;		_sprintf
  1950 ;; This function is called by:
  1951 ;;		_main
  1952 ;; This function uses a non-reentrant model
  1953 ;;
  1954                           
  1955     0911                     _TSL2561_Read:	
  1956                           ;psect for function _TSL2561_Read
  1957                           
  1958     0911                     l3425:	
  1959                           ;incstack = 0
  1960                           ; Regs used in _TSL2561_Read: [wreg-fsr0h+status,2+status,0+btemp+1+pclath+cstack]
  1961                           
  1962                           
  1963                           ;Dig2ProMaster.c: 313:     I2C_Master_Start();
  1964     0911  160A  118A  2171  120A  158A  	fcall	_I2C_Master_Start
  1965                           
  1966                           ;Dig2ProMaster.c: 314:     I2C_Master_Write(0x72);
  1967     0916  3072               	movlw	114
  1968     0917  00F0               	movwf	I2C_Master_Write@d
  1969     0918  3000               	movlw	0
  1970     0919  00F1               	movwf	I2C_Master_Write@d+1
  1971     091A  160A  118A  2183  120A  158A  	fcall	_I2C_Master_Write
  1972                           
  1973                           ;Dig2ProMaster.c: 315:     I2C_Master_Write(0x8C);
  1974     091F  308C               	movlw	140
  1975     0920  00F0               	movwf	I2C_Master_Write@d
  1976     0921  3000               	movlw	0
  1977     0922  00F1               	movwf	I2C_Master_Write@d+1
  1978     0923  160A  118A  2183  120A  158A  	fcall	_I2C_Master_Write
  1979                           
  1980                           ;Dig2ProMaster.c: 316:     I2C_Master_RepeatedStart();
  1981     0928  160A  118A  2168  120A  158A  	fcall	_I2C_Master_RepeatedStart
  1982                           
  1983                           ;Dig2ProMaster.c: 317:     I2C_Master_Write(0x73);
  1984     092D  3073               	movlw	115
  1985     092E  00F0               	movwf	I2C_Master_Write@d
  1986     092F  3000               	movlw	0
  1987     0930  00F1               	movwf	I2C_Master_Write@d+1
  1988     0931  160A  118A  2183  120A  158A  	fcall	_I2C_Master_Write
  1989                           
  1990                           ;Dig2ProMaster.c: 319:     data[0] = I2C_Master_Read(0);
  1991     0936  3000               	movlw	0
  1992     0937  00F0               	movwf	I2C_Master_Read@a
  1993     0938  00F1               	movwf	I2C_Master_Read@a+1
  1994     0939  160A  118A  2282  120A  158A  	fcall	_I2C_Master_Read
  1995     093E  0870               	movf	?_I2C_Master_Read,w
  1996     093F  1683               	bsf	3,5	;RP0=1, select bank3
  1997     0940  1703               	bsf	3,6	;RP1=1, select bank3
  1998     0941  0090               	movwf	_data^(0+384)
  1999                           
  2000                           ;Dig2ProMaster.c: 320:     data[1] = I2C_Master_Read(0);
  2001     0942  3000               	movlw	0
  2002     0943  00F0               	movwf	I2C_Master_Read@a
  2003     0944  00F1               	movwf	I2C_Master_Read@a+1
  2004     0945  160A  118A  2282  120A  158A  	fcall	_I2C_Master_Read
  2005     094A  0870               	movf	?_I2C_Master_Read,w
  2006     094B  1683               	bsf	3,5	;RP0=1, select bank3
  2007     094C  1703               	bsf	3,6	;RP1=1, select bank3
  2008     094D  0091               	movwf	(_data^(0+384)+1)
  2009                           
  2010                           ;Dig2ProMaster.c: 321:     data[2] = I2C_Master_Read(0);
  2011     094E  3000               	movlw	0
  2012     094F  00F0               	movwf	I2C_Master_Read@a
  2013     0950  00F1               	movwf	I2C_Master_Read@a+1
  2014     0951  160A  118A  2282  120A  158A  	fcall	_I2C_Master_Read
  2015     0956  0870               	movf	?_I2C_Master_Read,w
  2016     0957  1683               	bsf	3,5	;RP0=1, select bank3
  2017     0958  1703               	bsf	3,6	;RP1=1, select bank3
  2018     0959  0092               	movwf	(_data^(0+384)+2)
  2019                           
  2020                           ;Dig2ProMaster.c: 322:     data[3] = I2C_Master_Read(1);
  2021     095A  3001               	movlw	1
  2022     095B  00F0               	movwf	I2C_Master_Read@a
  2023     095C  3000               	movlw	0
  2024     095D  00F1               	movwf	I2C_Master_Read@a+1
  2025     095E  160A  118A  2282  120A  158A  	fcall	_I2C_Master_Read
  2026     0963  0870               	movf	?_I2C_Master_Read,w
  2027     0964  1683               	bsf	3,5	;RP0=1, select bank3
  2028     0965  1703               	bsf	3,6	;RP1=1, select bank3
  2029     0966  0093               	movwf	(_data^(0+384)+3)
  2030                           
  2031                           ;Dig2ProMaster.c: 325:     I2C_Master_Stop();
  2032     0967  160A  118A  217A  120A  158A  	fcall	_I2C_Master_Stop
  2033     096C                     l3427:
  2034                           
  2035                           ;Dig2ProMaster.c: 329:     ch0 = (data[1] << 8) | data[0];
  2036     096C  1683               	bsf	3,5	;RP0=1, select bank3
  2037     096D  1703               	bsf	3,6	;RP1=1, select bank3
  2038     096E  0810               	movf	_data^(0+384),w
  2039     096F  1283               	bcf	3,5	;RP0=0, select bank0
  2040     0970  1303               	bcf	3,6	;RP1=0, select bank0
  2041     0971  00AD               	movwf	??_TSL2561_Read
  2042     0972  01AE               	clrf	??_TSL2561_Read+1
  2043     0973  1683               	bsf	3,5	;RP0=1, select bank3
  2044     0974  1703               	bsf	3,6	;RP1=1, select bank3
  2045     0975  0811               	movf	(_data^(0+384)+1),w
  2046     0976  1283               	bcf	3,5	;RP0=0, select bank0
  2047     0977  1303               	bcf	3,6	;RP1=0, select bank0
  2048     0978  00AF               	movwf	??_TSL2561_Read+2
  2049     0979  01B0               	clrf	??_TSL2561_Read+3
  2050     097A  082F               	movf	??_TSL2561_Read+2,w
  2051     097B  00B0               	movwf	??_TSL2561_Read+3
  2052     097C  01AF               	clrf	??_TSL2561_Read+2
  2053     097D  082D               	movf	??_TSL2561_Read,w
  2054     097E  042F               	iorwf	??_TSL2561_Read+2,w
  2055     097F  00EC               	movwf	_ch0
  2056     0980  082E               	movf	??_TSL2561_Read+1,w
  2057     0981  0430               	iorwf	??_TSL2561_Read+3,w
  2058     0982  00ED               	movwf	_ch0+1
  2059     0983                     l3429:
  2060                           
  2061                           ;Dig2ProMaster.c: 333:     ch1 = (data[3] << 8) | data[2];
  2062     0983  1683               	bsf	3,5	;RP0=1, select bank3
  2063     0984  1703               	bsf	3,6	;RP1=1, select bank3
  2064     0985  0812               	movf	(_data^(0+384)+2),w
  2065     0986  1283               	bcf	3,5	;RP0=0, select bank0
  2066     0987  1303               	bcf	3,6	;RP1=0, select bank0
  2067     0988  00AD               	movwf	??_TSL2561_Read
  2068     0989  01AE               	clrf	??_TSL2561_Read+1
  2069     098A  1683               	bsf	3,5	;RP0=1, select bank3
  2070     098B  1703               	bsf	3,6	;RP1=1, select bank3
  2071     098C  0813               	movf	(_data^(0+384)+3),w
  2072     098D  1283               	bcf	3,5	;RP0=0, select bank0
  2073     098E  1303               	bcf	3,6	;RP1=0, select bank0
  2074     098F  00AF               	movwf	??_TSL2561_Read+2
  2075     0990  01B0               	clrf	??_TSL2561_Read+3
  2076     0991  082F               	movf	??_TSL2561_Read+2,w
  2077     0992  00B0               	movwf	??_TSL2561_Read+3
  2078     0993  01AF               	clrf	??_TSL2561_Read+2
  2079     0994  082D               	movf	??_TSL2561_Read,w
  2080     0995  042F               	iorwf	??_TSL2561_Read+2,w
  2081     0996  00EA               	movwf	_ch1
  2082     0997  082E               	movf	??_TSL2561_Read+1,w
  2083     0998  0430               	iorwf	??_TSL2561_Read+3,w
  2084     0999  00EB               	movwf	_ch1+1
  2085     099A                     l3431:
  2086                           
  2087                           ;Dig2ProMaster.c: 334:     ch2 = ch0 - ch1;
  2088     099A  086A               	movf	_ch1,w
  2089     099B  026C               	subwf	_ch0,w
  2090     099C  1683               	bsf	3,5	;RP0=1, select bank1
  2091     099D  1303               	bcf	3,6	;RP1=0, select bank1
  2092     099E  00B6               	movwf	_ch2^(0+128)
  2093     099F  1283               	bcf	3,5	;RP0=0, select bank0
  2094     09A0  1303               	bcf	3,6	;RP1=0, select bank0
  2095     09A1  086B               	movf	_ch1+1,w
  2096     09A2  1C03               	skipc
  2097     09A3  0A6B               	incf	_ch1+1,w
  2098     09A4  026D               	subwf	_ch0+1,w
  2099     09A5  1683               	bsf	3,5	;RP0=1, select bank1
  2100     09A6  1303               	bcf	3,6	;RP1=0, select bank1
  2101     09A7  00B7               	movwf	(_ch2+1)^(0+128)
  2102     09A8                     l3433:
  2103                           
  2104                           ;Dig2ProMaster.c: 344:     sprintf(bufferch0, "%u", ch0);
  2105     09A8  3017               	movlw	(low ((STR_1-__stringbase)| (0+32768)))& (0+255)
  2106     09A9  1283               	bcf	3,5	;RP0=0, select bank0
  2107     09AA  1303               	bcf	3,6	;RP1=0, select bank0
  2108     09AB  00A0               	movwf	sprintf@f
  2109     09AC  086D               	movf	_ch0+1,w
  2110     09AD  00A2               	movwf	?_sprintf+2
  2111     09AE  086C               	movf	_ch0,w
  2112     09AF  00A1               	movwf	?_sprintf+1
  2113     09B0  3096               	movlw	(low (_bufferch0| (0+256)))& (0+255)
  2114     09B1  120A  158A  2050  120A  158A  	fcall	_sprintf
  2115     09B6                     l3435:
  2116                           
  2117                           ;Dig2ProMaster.c: 345:     sprintf(bufferch1, "%u", ch1);
  2118     09B6  3017               	movlw	(low ((STR_1-__stringbase)| (0+32768)))& (0+255)
  2119     09B7  1283               	bcf	3,5	;RP0=0, select bank0
  2120     09B8  1303               	bcf	3,6	;RP1=0, select bank0
  2121     09B9  00A0               	movwf	sprintf@f
  2122     09BA  086B               	movf	_ch1+1,w
  2123     09BB  00A2               	movwf	?_sprintf+2
  2124     09BC  086A               	movf	_ch1,w
  2125     09BD  00A1               	movwf	?_sprintf+1
  2126     09BE  3040               	movlw	(low (_bufferch1| (0+256)))& (0+255)
  2127     09BF  120A  158A  2050  120A  158A  	fcall	_sprintf
  2128     09C4                     l3437:
  2129                           
  2130                           ;Dig2ProMaster.c: 346:     sprintf(bufferch2, "%u", ch2);
  2131     09C4  3017               	movlw	(low ((STR_1-__stringbase)| (0+32768)))& (0+255)
  2132     09C5  1283               	bcf	3,5	;RP0=0, select bank0
  2133     09C6  1303               	bcf	3,6	;RP1=0, select bank0
  2134     09C7  00A0               	movwf	sprintf@f
  2135     09C8  1683               	bsf	3,5	;RP0=1, select bank1
  2136     09C9  1303               	bcf	3,6	;RP1=0, select bank1
  2137     09CA  0837               	movf	(_ch2+1)^(0+128),w
  2138     09CB  1283               	bcf	3,5	;RP0=0, select bank0
  2139     09CC  1303               	bcf	3,6	;RP1=0, select bank0
  2140     09CD  00A2               	movwf	?_sprintf+2
  2141     09CE  1683               	bsf	3,5	;RP0=1, select bank1
  2142     09CF  1303               	bcf	3,6	;RP1=0, select bank1
  2143     09D0  0836               	movf	_ch2^(0+128),w
  2144     09D1  1283               	bcf	3,5	;RP0=0, select bank0
  2145     09D2  1303               	bcf	3,6	;RP1=0, select bank0
  2146     09D3  00A1               	movwf	?_sprintf+1
  2147     09D4  3010               	movlw	(low (_bufferch2| (0+256)))& (0+255)
  2148     09D5  120A  158A  2050  120A  158A  	fcall	_sprintf
  2149     09DA                     l3439:
  2150                           
  2151                           ;Dig2ProMaster.c: 348:     Lcd_Set_Cursor(2,1);
  2152     09DA  01F4               	clrf	Lcd_Set_Cursor@b
  2153     09DB  0AF4               	incf	Lcd_Set_Cursor@b,f
  2154     09DC  3002               	movlw	2
  2155     09DD  160A  118A  21EC  120A  158A  	fcall	_Lcd_Set_Cursor
  2156     09E2                     l3441:
  2157                           
  2158                           ;Dig2ProMaster.c: 349:     if(ch0 <= 65290){
  2159     09E2  30FF               	movlw	255
  2160     09E3  1283               	bcf	3,5	;RP0=0, select bank0
  2161     09E4  1303               	bcf	3,6	;RP1=0, select bank0
  2162     09E5  026D               	subwf	_ch0+1,w
  2163     09E6  300B               	movlw	11
  2164     09E7  1903               	skipnz
  2165     09E8  026C               	subwf	_ch0,w
  2166     09E9  1803               	skipnc
  2167     09EA  29EC               	goto	u4161
  2168     09EB  29ED               	goto	u4160
  2169     09EC                     u4161:
  2170     09EC  29FB               	goto	l3447
  2171     09ED                     u4160:
  2172     09ED                     l3443:
  2173                           
  2174                           ;Dig2ProMaster.c: 350:         Lcd_Write_String("dark ");
  2175     09ED  300B               	movlw	(low ((STR_4-__stringbase)| (0+32768)))& (0+255)
  2176     09EE  00F3               	movwf	Lcd_Write_String@a
  2177     09EF  3080               	movlw	128
  2178     09F0  00F4               	movwf	Lcd_Write_String@a+1
  2179     09F1  160A  118A  2475  120A  158A  	fcall	_Lcd_Write_String
  2180     09F6                     l3445:
  2181                           
  2182                           ;Dig2ProMaster.c: 351:         light = 0;
  2183     09F6  1683               	bsf	3,5	;RP0=1, select bank1
  2184     09F7  1303               	bcf	3,6	;RP1=0, select bank1
  2185     09F8  01A8               	clrf	_light^(0+128)
  2186     09F9  01A9               	clrf	(_light+1)^(0+128)
  2187                           
  2188                           ;Dig2ProMaster.c: 352:     }else{
  2189     09FA  2A0A               	goto	l321
  2190     09FB                     l3447:
  2191                           
  2192                           ;Dig2ProMaster.c: 353:         Lcd_Write_String("light");
  2193     09FB  3011               	movlw	(low ((STR_5-__stringbase)| (0+32768)))& (0+255)
  2194     09FC  00F3               	movwf	Lcd_Write_String@a
  2195     09FD  3080               	movlw	128
  2196     09FE  00F4               	movwf	Lcd_Write_String@a+1
  2197     09FF  160A  118A  2475  120A  158A  	fcall	_Lcd_Write_String
  2198     0A04                     l3449:
  2199                           
  2200                           ;Dig2ProMaster.c: 354:         light = 1;
  2201     0A04  3001               	movlw	1
  2202     0A05  1683               	bsf	3,5	;RP0=1, select bank1
  2203     0A06  1303               	bcf	3,6	;RP1=0, select bank1
  2204     0A07  00A8               	movwf	_light^(0+128)
  2205     0A08  3000               	movlw	0
  2206     0A09  00A9               	movwf	(_light^(0+128)+1)
  2207     0A0A                     l321:
  2208     0A0A  0008               	return
  2209     0A0B                     __end_of_TSL2561_Read:
  2210                           
  2211                           	psect	text7
  2212     0850                     __ptext7:	
  2213 ;; *************** function _sprintf *****************
  2214 ;; Defined at:
  2215 ;;		line 505 in file "C:\Program Files\Microchip\xc8\v2.40\pic\sources\c90\common\doprnt.c"
  2216 ;; Parameters:    Size  Location     Type
  2217 ;;  sp              1    wreg     PTR unsigned char 
  2218 ;;		 -> bufferch2(48), bufferch1(48), bufferch0(48), 
  2219 ;;  f               1    0[BANK0 ] PTR const unsigned char 
  2220 ;;		 -> STR_3(3), STR_2(3), STR_1(3), 
  2221 ;; Auto vars:     Size  Location     Type
  2222 ;;  sp              1   11[BANK0 ] PTR unsigned char 
  2223 ;;		 -> bufferch2(48), bufferch1(48), bufferch0(48), 
  2224 ;;  tmpval          4    0        struct .
  2225 ;;  val             2    8[BANK0 ] unsigned int 
  2226 ;;  cp              2    0        PTR const unsigned char 
  2227 ;;  len             2    0        unsigned int 
  2228 ;;  c               1   12[BANK0 ] unsigned char 
  2229 ;;  prec            1   10[BANK0 ] char 
  2230 ;;  ap              1    7[BANK0 ] PTR void [1]
  2231 ;;		 -> ?_sprintf(2), 
  2232 ;;  flag            1    6[BANK0 ] unsigned char 
  2233 ;; Return value:  Size  Location     Type
  2234 ;;                  2    0[BANK0 ] int 
  2235 ;; Registers used:
  2236 ;;		wreg, fsr0l, fsr0h, status,2, status,0, btemp+1, pclath, cstack
  2237 ;; Tracked objects:
  2238 ;;		On entry : 0/0
  2239 ;;		On exit  : 0/0
  2240 ;;		Unchanged: 0/0
  2241 ;; Data sizes:     COMMON   BANK0   BANK1   BANK3   BANK2
  2242 ;;      Params:         0       3       0       0       0
  2243 ;;      Locals:         0       7       0       0       0
  2244 ;;      Temps:          0       3       0       0       0
  2245 ;;      Totals:         0      13       0       0       0
  2246 ;;Total ram usage:       13 bytes
  2247 ;; Hardware stack levels used: 1
  2248 ;; Hardware stack levels required when called: 1
  2249 ;; This function calls:
  2250 ;;		___lwdiv
  2251 ;;		___lwmod
  2252 ;; This function is called by:
  2253 ;;		_TSL2561_Read
  2254 ;; This function uses a non-reentrant model
  2255 ;;
  2256                           
  2257     0850                     _sprintf:	
  2258                           ;psect for function _sprintf
  2259                           
  2260                           
  2261                           ;incstack = 0
  2262                           ; Regs used in _sprintf: [wreg-fsr0h+status,2+status,0+btemp+1+pclath+cstack]
  2263                           ;sprintf@sp stored from wreg
  2264     0850  1283               	bcf	3,5	;RP0=0, select bank0
  2265     0851  1303               	bcf	3,6	;RP1=0, select bank0
  2266     0852  00AB               	movwf	sprintf@sp
  2267     0853                     l3275:
  2268                           
  2269                           ;C:\Program Files\Microchip\xc8\v2.40\pic\sources\c90\common\doprnt.c: 505: sprintf(char
      +                           * sp, const char * f, ...);C:\Program Files\Microchip\xc8\v2.40\pic\sources\c90\common\
      +                          doprnt.c: 506: {;C:\Program Files\Microchip\xc8\v2.40\pic\sources\c90\common\doprnt.c: 5
      +                          07:  va_list ap;;C:\Program Files\Microchip\xc8\v2.40\pic\sources\c90\common\doprnt.c: 5
      +                          12:  char c;;C:\Program Files\Microchip\xc8\v2.40\pic\sources\c90\common\doprnt.c: 521: 
      +                           signed char prec;;C:\Program Files\Microchip\xc8\v2.40\pic\sources\c90\common\doprnt.c:
      +                           525:  unsigned char flag;
  2270     0853  3021               	movlw	(low ((?_sprintf| 0+1)))& (0+255)
  2271     0854  00A7               	movwf	sprintf@ap
  2272                           
  2273                           ;C:\Program Files\Microchip\xc8\v2.40\pic\sources\c90\common\doprnt.c: 553:  while((c = 
      +                          *f++)) {
  2274     0855  28FC               	goto	l3317
  2275     0856                     l3277:
  2276                           
  2277                           ;C:\Program Files\Microchip\xc8\v2.40\pic\sources\c90\common\doprnt.c: 555:   if(c != '%
      +                          ')
  2278     0856  3025               	movlw	37
  2279     0857  062C               	xorwf	sprintf@c,w
  2280     0858  1903               	btfsc	3,2
  2281     0859  285B               	goto	u4081
  2282     085A  285C               	goto	u4080
  2283     085B                     u4081:
  2284     085B  2866               	goto	l3283
  2285     085C                     u4080:
  2286     085C                     l3279:
  2287                           
  2288                           ;C:\Program Files\Microchip\xc8\v2.40\pic\sources\c90\common\doprnt.c: 557:   {;C:\Progr
      +                          am Files\Microchip\xc8\v2.40\pic\sources\c90\common\doprnt.c: 558:    ((*sp++ = (c)));
  2289     085C  082B               	movf	sprintf@sp,w
  2290     085D  0084               	movwf	4
  2291     085E  082C               	movf	sprintf@c,w
  2292     085F  1783               	bsf	3,7	;select IRP bank2
  2293     0860  0080               	movwf	0
  2294     0861                     l3281:
  2295     0861  3001               	movlw	1
  2296     0862  00A3               	movwf	??_sprintf
  2297     0863  0823               	movf	??_sprintf,w
  2298     0864  07AB               	addwf	sprintf@sp,f
  2299                           
  2300                           ;C:\Program Files\Microchip\xc8\v2.40\pic\sources\c90\common\doprnt.c: 559:    continue;
  2301     0865  28FC               	goto	l3317
  2302     0866                     l3283:
  2303                           
  2304                           ;C:\Program Files\Microchip\xc8\v2.40\pic\sources\c90\common\doprnt.c: 565:   flag = 0;
  2305     0866  01A6               	clrf	sprintf@flag
  2306                           
  2307                           ;C:\Program Files\Microchip\xc8\v2.40\pic\sources\c90\common\doprnt.c: 661:   switch(c =
      +                           *f++) {
  2308     0867  286D               	goto	l3289
  2309     0868                     l3285:
  2310                           
  2311                           ;C:\Program Files\Microchip\xc8\v2.40\pic\sources\c90\common\doprnt.c: 844:    flag |= 0
      +                          xC0;
  2312     0868  30C0               	movlw	192
  2313     0869  00A3               	movwf	??_sprintf
  2314     086A  0823               	movf	??_sprintf,w
  2315     086B  04A6               	iorwf	sprintf@flag,f
  2316                           
  2317                           ;C:\Program Files\Microchip\xc8\v2.40\pic\sources\c90\common\doprnt.c: 845:    break;
  2318     086C  2887               	goto	l3291
  2319     086D                     l3289:
  2320     086D  3001               	movlw	1
  2321     086E  07A0               	addwf	sprintf@f,f
  2322     086F  30FF               	movlw	-1
  2323     0870  0720               	addwf	sprintf@f,w
  2324     0871  0084               	movwf	4
  2325     0872  160A  118A  200A  120A  158A  	fcall	stringdir
  2326     0877  00AC               	movwf	sprintf@c
  2327     0878  00A3               	movwf	??_sprintf
  2328     0879  01A4               	clrf	??_sprintf+1
  2329                           
  2330                           ; Switch on 2 bytes has been partitioned into a top level switch of size 1, and 1 sub-sw
      +                          itches
  2331                           ; Switch size 1, requested type "simple"
  2332                           ; Number of cases is 1, Range of values is 0 to 0
  2333                           ; switch strategies available:
  2334                           ; Name         Instructions Cycles
  2335                           ; simple_byte            4     3 (average)
  2336                           ; direct_byte           11     8 (fixed)
  2337                           ; jumptable            260     6 (fixed)
  2338                           ;	Chosen strategy is simple_byte
  2339     087A  0824               	movf	??_sprintf+1,w
  2340     087B  3A00               	xorlw	0	; case 0
  2341     087C  1903               	skipnz
  2342     087D  287F               	goto	l3583
  2343     087E  28FC               	goto	l3317
  2344     087F                     l3583:
  2345                           
  2346                           ; Switch size 1, requested type "simple"
  2347                           ; Number of cases is 2, Range of values is 0 to 117
  2348                           ; switch strategies available:
  2349                           ; Name         Instructions Cycles
  2350                           ; simple_byte            7     4 (average)
  2351                           ; jumptable            260     6 (fixed)
  2352                           ;	Chosen strategy is simple_byte
  2353     087F  0823               	movf	??_sprintf,w
  2354     0880  3A00               	xorlw	0	; case 0
  2355     0881  1903               	skipnz
  2356     0882  290C               	goto	l3319
  2357     0883  3A75               	xorlw	117	; case 117
  2358     0884  1903               	skipnz
  2359     0885  2868               	goto	l3285
  2360     0886  28FC               	goto	l3317
  2361     0887                     l3291:
  2362                           
  2363                           ;C:\Program Files\Microchip\xc8\v2.40\pic\sources\c90\common\doprnt.c: 1299:   {;C:\Prog
      +                          ram Files\Microchip\xc8\v2.40\pic\sources\c90\common\doprnt.c: 1312:     val = (*(unsign
      +                          ed *)__va_arg((*(unsigned **)ap), (unsigned)0));
  2364     0887  0827               	movf	sprintf@ap,w
  2365     0888  0084               	movwf	4
  2366     0889  1383               	bcf	3,7	;select IRP bank0
  2367     088A  0800               	movf	0,w
  2368     088B  00A8               	movwf	sprintf@val
  2369     088C  0A84               	incf	4,f
  2370     088D  0800               	movf	0,w
  2371     088E  00A9               	movwf	sprintf@val+1
  2372     088F                     l3293:
  2373     088F  3002               	movlw	2
  2374     0890  00A3               	movwf	??_sprintf
  2375     0891  0823               	movf	??_sprintf,w
  2376     0892  07A7               	addwf	sprintf@ap,f
  2377     0893                     l3295:
  2378                           
  2379                           ;C:\Program Files\Microchip\xc8\v2.40\pic\sources\c90\common\doprnt.c: 1313:   };C:\Prog
      +                          ram Files\Microchip\xc8\v2.40\pic\sources\c90\common\doprnt.c: 1331:    for(c = 1 ; c !=
      +                           sizeof dpowers/sizeof dpowers[0] ; c++)
  2380     0893  01AC               	clrf	sprintf@c
  2381     0894  0AAC               	incf	sprintf@c,f
  2382     0895                     l3301:
  2383                           
  2384                           ;C:\Program Files\Microchip\xc8\v2.40\pic\sources\c90\common\doprnt.c: 1332:     if(val 
      +                          < dpowers[c])
  2385     0895  082C               	movf	sprintf@c,w
  2386     0896  00A3               	movwf	??_sprintf
  2387     0897  0723               	addwf	??_sprintf,w
  2388     0898  3E01               	addlw	low ((_dpowers-__stringbase)| (0+32768))
  2389     0899  0084               	movwf	4
  2390     089A  160A  118A  200A  120A  158A  	fcall	stringdir
  2391     089F  00A4               	movwf	??_sprintf+1
  2392     08A0  160A  118A  200A  120A  158A  	fcall	stringdir
  2393     08A5  00A5               	movwf	??_sprintf+2
  2394     08A6  0825               	movf	??_sprintf+2,w
  2395     08A7  0229               	subwf	sprintf@val+1,w
  2396     08A8  1D03               	skipz
  2397     08A9  28AC               	goto	u4095
  2398     08AA  0824               	movf	??_sprintf+1,w
  2399     08AB  0228               	subwf	sprintf@val,w
  2400     08AC                     u4095:
  2401     08AC  1803               	skipnc
  2402     08AD  28AF               	goto	u4091
  2403     08AE  28B0               	goto	u4090
  2404     08AF                     u4091:
  2405     08AF  28B1               	goto	l3305
  2406     08B0                     u4090:
  2407     08B0  28BB               	goto	l3307
  2408     08B1                     l3305:
  2409     08B1  3001               	movlw	1
  2410     08B2  00A3               	movwf	??_sprintf
  2411     08B3  0823               	movf	??_sprintf,w
  2412     08B4  07AC               	addwf	sprintf@c,f
  2413     08B5  3005               	movlw	5
  2414     08B6  062C               	xorwf	sprintf@c,w
  2415     08B7  1D03               	btfss	3,2
  2416     08B8  28BA               	goto	u4101
  2417     08B9  28BB               	goto	u4100
  2418     08BA                     u4101:
  2419     08BA  2895               	goto	l3301
  2420     08BB                     u4100:
  2421     08BB                     l3307:
  2422                           
  2423                           ;C:\Program Files\Microchip\xc8\v2.40\pic\sources\c90\common\doprnt.c: 1448:   {;C:\Prog
      +                          ram Files\Microchip\xc8\v2.40\pic\sources\c90\common\doprnt.c: 1495:   };C:\Program File
      +                          s\Microchip\xc8\v2.40\pic\sources\c90\common\doprnt.c: 1498:   prec = c;
  2424     08BB  082C               	movf	sprintf@c,w
  2425     08BC  00AA               	movwf	sprintf@prec
  2426                           
  2427                           ;C:\Program Files\Microchip\xc8\v2.40\pic\sources\c90\common\doprnt.c: 1500:   while(pre
      +                          c--) {
  2428     08BD  28F3               	goto	l3315
  2429     08BE                     l3309:
  2430                           
  2431                           ;C:\Program Files\Microchip\xc8\v2.40\pic\sources\c90\common\doprnt.c: 1504:    {;C:\Pro
      +                          gram Files\Microchip\xc8\v2.40\pic\sources\c90\common\doprnt.c: 1515:     c = (val / dpo
      +                          wers[(unsigned char)prec]) % 10 + '0';
  2432     08BE  300A               	movlw	10
  2433     08BF  00F8               	movwf	___lwmod@divisor
  2434     08C0  3000               	movlw	0
  2435     08C1  00F9               	movwf	___lwmod@divisor+1
  2436     08C2  082A               	movf	sprintf@prec,w
  2437     08C3  00A3               	movwf	??_sprintf
  2438     08C4  0723               	addwf	??_sprintf,w
  2439     08C5  3E01               	addlw	low ((_dpowers-__stringbase)| (0+32768))
  2440     08C6  0084               	movwf	4
  2441     08C7  160A  118A  200A  120A  158A  	fcall	stringdir
  2442     08CC  00F0               	movwf	___lwdiv@divisor
  2443     08CD  160A  118A  200A  120A  158A  	fcall	stringdir
  2444     08D2  00F1               	movwf	___lwdiv@divisor+1
  2445     08D3  0829               	movf	sprintf@val+1,w
  2446     08D4  00F3               	movwf	___lwdiv@dividend+1
  2447     08D5  0828               	movf	sprintf@val,w
  2448     08D6  00F2               	movwf	___lwdiv@dividend
  2449     08D7  160A  118A  24B7  120A  158A  	fcall	___lwdiv
  2450     08DC  0871               	movf	?___lwdiv+1,w
  2451     08DD  00FB               	movwf	___lwmod@dividend+1
  2452     08DE  0870               	movf	?___lwdiv,w
  2453     08DF  00FA               	movwf	___lwmod@dividend
  2454     08E0  160A  118A  2382  120A  158A  	fcall	___lwmod
  2455     08E5  0878               	movf	?___lwmod,w
  2456     08E6  3E30               	addlw	48
  2457     08E7  1283               	bcf	3,5	;RP0=0, select bank0
  2458     08E8  1303               	bcf	3,6	;RP1=0, select bank0
  2459     08E9  00AC               	movwf	sprintf@c
  2460     08EA                     l3311:
  2461                           
  2462                           ;C:\Program Files\Microchip\xc8\v2.40\pic\sources\c90\common\doprnt.c: 1549:    };C:\Pro
      +                          gram Files\Microchip\xc8\v2.40\pic\sources\c90\common\doprnt.c: 1550:    ((*sp++ = (c)))
      +                          ;
  2463     08EA  082B               	movf	sprintf@sp,w
  2464     08EB  0084               	movwf	4
  2465     08EC  082C               	movf	sprintf@c,w
  2466     08ED  1783               	bsf	3,7	;select IRP bank2
  2467     08EE  0080               	movwf	0
  2468     08EF                     l3313:
  2469     08EF  3001               	movlw	1
  2470     08F0  00A3               	movwf	??_sprintf
  2471     08F1  0823               	movf	??_sprintf,w
  2472     08F2  07AB               	addwf	sprintf@sp,f
  2473     08F3                     l3315:
  2474                           
  2475                           ;C:\Program Files\Microchip\xc8\v2.40\pic\sources\c90\common\doprnt.c: 1500:   while(pre
      +                          c--) {
  2476     08F3  30FF               	movlw	255
  2477     08F4  00A3               	movwf	??_sprintf
  2478     08F5  0823               	movf	??_sprintf,w
  2479     08F6  07AA               	addwf	sprintf@prec,f
  2480     08F7  0A2A               	incf	sprintf@prec,w
  2481     08F8  1D03               	btfss	3,2
  2482     08F9  28FB               	goto	u4111
  2483     08FA  28FC               	goto	u4110
  2484     08FB                     u4111:
  2485     08FB  28BE               	goto	l3309
  2486     08FC                     u4110:
  2487     08FC                     l3317:
  2488                           
  2489                           ;C:\Program Files\Microchip\xc8\v2.40\pic\sources\c90\common\doprnt.c: 553:  while((c = 
      +                          *f++)) {
  2490     08FC  3001               	movlw	1
  2491     08FD  07A0               	addwf	sprintf@f,f
  2492     08FE  30FF               	movlw	-1
  2493     08FF  0720               	addwf	sprintf@f,w
  2494     0900  0084               	movwf	4
  2495     0901  160A  118A  200A  120A  158A  	fcall	stringdir
  2496     0906  00AC               	movwf	sprintf@c
  2497     0907  082C               	movf	sprintf@c,w
  2498     0908  1D03               	btfss	3,2
  2499     0909  290B               	goto	u4121
  2500     090A  290C               	goto	u4120
  2501     090B                     u4121:
  2502     090B  2856               	goto	l3277
  2503     090C                     u4120:
  2504     090C                     l3319:
  2505                           
  2506                           ;C:\Program Files\Microchip\xc8\v2.40\pic\sources\c90\common\doprnt.c: 1564:  *sp = 0;
  2507     090C  082B               	movf	sprintf@sp,w
  2508     090D  0084               	movwf	4
  2509     090E  1783               	bsf	3,7	;select IRP bank2
  2510     090F  0180               	clrf	0
  2511     0910                     l475:
  2512     0910  0008               	return
  2513     0911                     __end_of_sprintf:
  2514                           
  2515                           	psect	text8
  2516     1382                     __ptext8:	
  2517 ;; *************** function ___lwmod *****************
  2518 ;; Defined at:
  2519 ;;		line 5 in file "C:\Program Files\Microchip\xc8\v2.40\pic\sources\c90\common\lwmod.c"
  2520 ;; Parameters:    Size  Location     Type
  2521 ;;  divisor         2    8[COMMON] unsigned int 
  2522 ;;  dividend        2   10[COMMON] unsigned int 
  2523 ;; Auto vars:     Size  Location     Type
  2524 ;;  counter         1   13[COMMON] unsigned char 
  2525 ;; Return value:  Size  Location     Type
  2526 ;;                  2    8[COMMON] unsigned int 
  2527 ;; Registers used:
  2528 ;;		wreg, status,2, status,0
  2529 ;; Tracked objects:
  2530 ;;		On entry : 0/0
  2531 ;;		On exit  : 0/0
  2532 ;;		Unchanged: 0/0
  2533 ;; Data sizes:     COMMON   BANK0   BANK1   BANK3   BANK2
  2534 ;;      Params:         4       0       0       0       0
  2535 ;;      Locals:         1       0       0       0       0
  2536 ;;      Temps:          1       0       0       0       0
  2537 ;;      Totals:         6       0       0       0       0
  2538 ;;Total ram usage:        6 bytes
  2539 ;; Hardware stack levels used: 1
  2540 ;; This function calls:
  2541 ;;		Nothing
  2542 ;; This function is called by:
  2543 ;;		_sprintf
  2544 ;; This function uses a non-reentrant model
  2545 ;;
  2546                           
  2547     1382                     ___lwmod:	
  2548                           ;psect for function ___lwmod
  2549                           
  2550     1382                     l2665:	
  2551                           ;incstack = 0
  2552                           ; Regs used in ___lwmod: [wreg+status,2+status,0]
  2553                           
  2554     1382  0878               	movf	___lwmod@divisor,w
  2555     1383  0479               	iorwf	___lwmod@divisor+1,w
  2556     1384  1903               	btfsc	3,2
  2557     1385  2B87               	goto	u3011
  2558     1386  2B88               	goto	u3010
  2559     1387                     u3011:
  2560     1387  2BB7               	goto	l2683
  2561     1388                     u3010:
  2562     1388                     l2667:
  2563     1388  01FD               	clrf	___lwmod@counter
  2564     1389  0AFD               	incf	___lwmod@counter,f
  2565     138A  2B96               	goto	l2673
  2566     138B                     l2669:
  2567     138B  3001               	movlw	1
  2568     138C                     u3025:
  2569     138C  1003               	clrc
  2570     138D  0DF8               	rlf	___lwmod@divisor,f
  2571     138E  0DF9               	rlf	___lwmod@divisor+1,f
  2572     138F  3EFF               	addlw	-1
  2573     1390  1D03               	skipz
  2574     1391  2B8C               	goto	u3025
  2575     1392                     l2671:
  2576     1392  3001               	movlw	1
  2577     1393  00FC               	movwf	??___lwmod
  2578     1394  087C               	movf	??___lwmod,w
  2579     1395  07FD               	addwf	___lwmod@counter,f
  2580     1396                     l2673:
  2581     1396  1FF9               	btfss	___lwmod@divisor+1,7
  2582     1397  2B99               	goto	u3031
  2583     1398  2B9A               	goto	u3030
  2584     1399                     u3031:
  2585     1399  2B8B               	goto	l2669
  2586     139A                     u3030:
  2587     139A                     l2675:
  2588     139A  0879               	movf	___lwmod@divisor+1,w
  2589     139B  027B               	subwf	___lwmod@dividend+1,w
  2590     139C  1D03               	skipz
  2591     139D  2BA0               	goto	u3045
  2592     139E  0878               	movf	___lwmod@divisor,w
  2593     139F  027A               	subwf	___lwmod@dividend,w
  2594     13A0                     u3045:
  2595     13A0  1C03               	skipc
  2596     13A1  2BA3               	goto	u3041
  2597     13A2  2BA4               	goto	u3040
  2598     13A3                     u3041:
  2599     13A3  2BAA               	goto	l2679
  2600     13A4                     u3040:
  2601     13A4                     l2677:
  2602     13A4  0878               	movf	___lwmod@divisor,w
  2603     13A5  02FA               	subwf	___lwmod@dividend,f
  2604     13A6  0879               	movf	___lwmod@divisor+1,w
  2605     13A7  1C03               	skipc
  2606     13A8  03FB               	decf	___lwmod@dividend+1,f
  2607     13A9  02FB               	subwf	___lwmod@dividend+1,f
  2608     13AA                     l2679:
  2609     13AA  3001               	movlw	1
  2610     13AB                     u3055:
  2611     13AB  1003               	clrc
  2612     13AC  0CF9               	rrf	___lwmod@divisor+1,f
  2613     13AD  0CF8               	rrf	___lwmod@divisor,f
  2614     13AE  3EFF               	addlw	-1
  2615     13AF  1D03               	skipz
  2616     13B0  2BAB               	goto	u3055
  2617     13B1                     l2681:
  2618     13B1  3001               	movlw	1
  2619     13B2  02FD               	subwf	___lwmod@counter,f
  2620     13B3  1D03               	btfss	3,2
  2621     13B4  2BB6               	goto	u3061
  2622     13B5  2BB7               	goto	u3060
  2623     13B6                     u3061:
  2624     13B6  2B9A               	goto	l2675
  2625     13B7                     u3060:
  2626     13B7                     l2683:
  2627     13B7  087B               	movf	___lwmod@dividend+1,w
  2628     13B8  00F9               	movwf	?___lwmod+1
  2629     13B9  087A               	movf	___lwmod@dividend,w
  2630     13BA  00F8               	movwf	?___lwmod
  2631     13BB                     l761:
  2632     13BB  0008               	return
  2633     13BC                     __end_of___lwmod:
  2634                           
  2635                           	psect	text9
  2636     14B7                     __ptext9:	
  2637 ;; *************** function ___lwdiv *****************
  2638 ;; Defined at:
  2639 ;;		line 5 in file "C:\Program Files\Microchip\xc8\v2.40\pic\sources\c90\common\lwdiv.c"
  2640 ;; Parameters:    Size  Location     Type
  2641 ;;  divisor         2    0[COMMON] unsigned int 
  2642 ;;  dividend        2    2[COMMON] unsigned int 
  2643 ;; Auto vars:     Size  Location     Type
  2644 ;;  quotient        2    5[COMMON] unsigned int 
  2645 ;;  counter         1    7[COMMON] unsigned char 
  2646 ;; Return value:  Size  Location     Type
  2647 ;;                  2    0[COMMON] unsigned int 
  2648 ;; Registers used:
  2649 ;;		wreg, status,2, status,0
  2650 ;; Tracked objects:
  2651 ;;		On entry : 0/0
  2652 ;;		On exit  : 0/0
  2653 ;;		Unchanged: 0/0
  2654 ;; Data sizes:     COMMON   BANK0   BANK1   BANK3   BANK2
  2655 ;;      Params:         4       0       0       0       0
  2656 ;;      Locals:         3       0       0       0       0
  2657 ;;      Temps:          1       0       0       0       0
  2658 ;;      Totals:         8       0       0       0       0
  2659 ;;Total ram usage:        8 bytes
  2660 ;; Hardware stack levels used: 1
  2661 ;; This function calls:
  2662 ;;		Nothing
  2663 ;; This function is called by:
  2664 ;;		_sprintf
  2665 ;; This function uses a non-reentrant model
  2666 ;;
  2667                           
  2668     14B7                     ___lwdiv:	
  2669                           ;psect for function ___lwdiv
  2670                           
  2671     14B7                     l2639:	
  2672                           ;incstack = 0
  2673                           ; Regs used in ___lwdiv: [wreg+status,2+status,0]
  2674                           
  2675     14B7  01F5               	clrf	___lwdiv@quotient
  2676     14B8  01F6               	clrf	___lwdiv@quotient+1
  2677     14B9                     l2641:
  2678     14B9  0870               	movf	___lwdiv@divisor,w
  2679     14BA  0471               	iorwf	___lwdiv@divisor+1,w
  2680     14BB  1903               	btfsc	3,2
  2681     14BC  2CBE               	goto	u2941
  2682     14BD  2CBF               	goto	u2940
  2683     14BE                     u2941:
  2684     14BE  2CF6               	goto	l2661
  2685     14BF                     u2940:
  2686     14BF                     l2643:
  2687     14BF  01F7               	clrf	___lwdiv@counter
  2688     14C0  0AF7               	incf	___lwdiv@counter,f
  2689     14C1  2CCD               	goto	l2649
  2690     14C2                     l2645:
  2691     14C2  3001               	movlw	1
  2692     14C3                     u2955:
  2693     14C3  1003               	clrc
  2694     14C4  0DF0               	rlf	___lwdiv@divisor,f
  2695     14C5  0DF1               	rlf	___lwdiv@divisor+1,f
  2696     14C6  3EFF               	addlw	-1
  2697     14C7  1D03               	skipz
  2698     14C8  2CC3               	goto	u2955
  2699     14C9                     l2647:
  2700     14C9  3001               	movlw	1
  2701     14CA  00F4               	movwf	??___lwdiv
  2702     14CB  0874               	movf	??___lwdiv,w
  2703     14CC  07F7               	addwf	___lwdiv@counter,f
  2704     14CD                     l2649:
  2705     14CD  1FF1               	btfss	___lwdiv@divisor+1,7
  2706     14CE  2CD0               	goto	u2961
  2707     14CF  2CD1               	goto	u2960
  2708     14D0                     u2961:
  2709     14D0  2CC2               	goto	l2645
  2710     14D1                     u2960:
  2711     14D1                     l2651:
  2712     14D1  3001               	movlw	1
  2713     14D2                     u2975:
  2714     14D2  1003               	clrc
  2715     14D3  0DF5               	rlf	___lwdiv@quotient,f
  2716     14D4  0DF6               	rlf	___lwdiv@quotient+1,f
  2717     14D5  3EFF               	addlw	-1
  2718     14D6  1D03               	skipz
  2719     14D7  2CD2               	goto	u2975
  2720     14D8  0871               	movf	___lwdiv@divisor+1,w
  2721     14D9  0273               	subwf	___lwdiv@dividend+1,w
  2722     14DA  1D03               	skipz
  2723     14DB  2CDE               	goto	u2985
  2724     14DC  0870               	movf	___lwdiv@divisor,w
  2725     14DD  0272               	subwf	___lwdiv@dividend,w
  2726     14DE                     u2985:
  2727     14DE  1C03               	skipc
  2728     14DF  2CE1               	goto	u2981
  2729     14E0  2CE2               	goto	u2980
  2730     14E1                     u2981:
  2731     14E1  2CE9               	goto	l2657
  2732     14E2                     u2980:
  2733     14E2                     l2653:
  2734     14E2  0870               	movf	___lwdiv@divisor,w
  2735     14E3  02F2               	subwf	___lwdiv@dividend,f
  2736     14E4  0871               	movf	___lwdiv@divisor+1,w
  2737     14E5  1C03               	skipc
  2738     14E6  03F3               	decf	___lwdiv@dividend+1,f
  2739     14E7  02F3               	subwf	___lwdiv@dividend+1,f
  2740     14E8                     l2655:
  2741     14E8  1475               	bsf	___lwdiv@quotient,0
  2742     14E9                     l2657:
  2743     14E9  3001               	movlw	1
  2744     14EA                     u2995:
  2745     14EA  1003               	clrc
  2746     14EB  0CF1               	rrf	___lwdiv@divisor+1,f
  2747     14EC  0CF0               	rrf	___lwdiv@divisor,f
  2748     14ED  3EFF               	addlw	-1
  2749     14EE  1D03               	skipz
  2750     14EF  2CEA               	goto	u2995
  2751     14F0                     l2659:
  2752     14F0  3001               	movlw	1
  2753     14F1  02F7               	subwf	___lwdiv@counter,f
  2754     14F2  1D03               	btfss	3,2
  2755     14F3  2CF5               	goto	u3001
  2756     14F4  2CF6               	goto	u3000
  2757     14F5                     u3001:
  2758     14F5  2CD1               	goto	l2651
  2759     14F6                     u3000:
  2760     14F6                     l2661:
  2761     14F6  0876               	movf	___lwdiv@quotient+1,w
  2762     14F7  00F1               	movwf	?___lwdiv+1
  2763     14F8  0875               	movf	___lwdiv@quotient,w
  2764     14F9  00F0               	movwf	?___lwdiv
  2765     14FA                     l751:
  2766     14FA  0008               	return
  2767     14FB                     __end_of___lwdiv:
  2768                           
  2769                           	psect	text10
  2770     14FB                     __ptext10:	
  2771 ;; *************** function _TSL2561_Init *****************
  2772 ;; Defined at:
  2773 ;;		line 297 in file "Dig2ProMaster.c"
  2774 ;; Parameters:    Size  Location     Type
  2775 ;;		None
  2776 ;; Auto vars:     Size  Location     Type
  2777 ;;		None
  2778 ;; Return value:  Size  Location     Type
  2779 ;;                  1    wreg      void 
  2780 ;; Registers used:
  2781 ;;		wreg, status,2, status,0, pclath, cstack
  2782 ;; Tracked objects:
  2783 ;;		On entry : 0/0
  2784 ;;		On exit  : 0/0
  2785 ;;		Unchanged: 0/0
  2786 ;; Data sizes:     COMMON   BANK0   BANK1   BANK3   BANK2
  2787 ;;      Params:         0       0       0       0       0
  2788 ;;      Locals:         0       0       0       0       0
  2789 ;;      Temps:          3       0       0       0       0
  2790 ;;      Totals:         3       0       0       0       0
  2791 ;;Total ram usage:        3 bytes
  2792 ;; Hardware stack levels used: 1
  2793 ;; Hardware stack levels required when called: 2
  2794 ;; This function calls:
  2795 ;;		_I2C_Master_Start
  2796 ;;		_I2C_Master_Stop
  2797 ;;		_I2C_Master_Write
  2798 ;; This function is called by:
  2799 ;;		_main
  2800 ;; This function uses a non-reentrant model
  2801 ;;
  2802                           
  2803     14FB                     _TSL2561_Init:	
  2804                           ;psect for function _TSL2561_Init
  2805                           
  2806     14FB                     l3389:	
  2807                           ;incstack = 0
  2808                           ; Regs used in _TSL2561_Init: [wreg+status,2+status,0+pclath+cstack]
  2809                           
  2810                           
  2811                           ;Dig2ProMaster.c: 298:     I2C_Master_Start();
  2812     14FB  160A  118A  2171  160A  118A  	fcall	_I2C_Master_Start
  2813                           
  2814                           ;Dig2ProMaster.c: 299:     I2C_Master_Write(0x72);
  2815     1500  3072               	movlw	114
  2816     1501  00F0               	movwf	I2C_Master_Write@d
  2817     1502  3000               	movlw	0
  2818     1503  00F1               	movwf	I2C_Master_Write@d+1
  2819     1504  160A  118A  2183  160A  118A  	fcall	_I2C_Master_Write
  2820                           
  2821                           ;Dig2ProMaster.c: 300:     I2C_Master_Write(0x80);
  2822     1509  3080               	movlw	128
  2823     150A  00F0               	movwf	I2C_Master_Write@d
  2824     150B  3000               	movlw	0
  2825     150C  00F1               	movwf	I2C_Master_Write@d+1
  2826     150D  160A  118A  2183  160A  118A  	fcall	_I2C_Master_Write
  2827                           
  2828                           ;Dig2ProMaster.c: 301:     I2C_Master_Write(0x03);
  2829     1512  3003               	movlw	3
  2830     1513  00F0               	movwf	I2C_Master_Write@d
  2831     1514  3000               	movlw	0
  2832     1515  00F1               	movwf	I2C_Master_Write@d+1
  2833     1516  160A  118A  2183  160A  118A  	fcall	_I2C_Master_Write
  2834                           
  2835                           ;Dig2ProMaster.c: 302:     I2C_Master_Stop();
  2836     151B  160A  118A  217A  160A  118A  	fcall	_I2C_Master_Stop
  2837                           
  2838                           ;Dig2ProMaster.c: 304:     I2C_Master_Start();
  2839     1520  160A  118A  2171  160A  118A  	fcall	_I2C_Master_Start
  2840                           
  2841                           ;Dig2ProMaster.c: 305:     I2C_Master_Write(0x72);
  2842     1525  3072               	movlw	114
  2843     1526  00F0               	movwf	I2C_Master_Write@d
  2844     1527  3000               	movlw	0
  2845     1528  00F1               	movwf	I2C_Master_Write@d+1
  2846     1529  160A  118A  2183  160A  118A  	fcall	_I2C_Master_Write
  2847                           
  2848                           ;Dig2ProMaster.c: 306:     I2C_Master_Write(0x81);
  2849     152E  3081               	movlw	129
  2850     152F  00F0               	movwf	I2C_Master_Write@d
  2851     1530  3000               	movlw	0
  2852     1531  00F1               	movwf	I2C_Master_Write@d+1
  2853     1532  160A  118A  2183  160A  118A  	fcall	_I2C_Master_Write
  2854                           
  2855                           ;Dig2ProMaster.c: 307:     I2C_Master_Write(0x10);
  2856     1537  3010               	movlw	16
  2857     1538  00F0               	movwf	I2C_Master_Write@d
  2858     1539  3000               	movlw	0
  2859     153A  00F1               	movwf	I2C_Master_Write@d+1
  2860     153B  160A  118A  2183  160A  118A  	fcall	_I2C_Master_Write
  2861                           
  2862                           ;Dig2ProMaster.c: 308:     I2C_Master_Stop();
  2863     1540  160A  118A  217A  160A  118A  	fcall	_I2C_Master_Stop
  2864     1545                     l3391:
  2865                           
  2866                           ;Dig2ProMaster.c: 309:     _delay((unsigned long)((300)*(8000000/4000.0)));
  2867     1545  3004               	movlw	4
  2868     1546  00F4               	movwf	??_TSL2561_Init+2
  2869     1547  300C               	movlw	12
  2870     1548  00F3               	movwf	??_TSL2561_Init+1
  2871     1549  3033               	movlw	51
  2872     154A  00F2               	movwf	??_TSL2561_Init
  2873     154B                     u4197:
  2874     154B  0BF2               	decfsz	??_TSL2561_Init,f
  2875     154C  2D4B               	goto	u4197
  2876     154D  0BF3               	decfsz	??_TSL2561_Init+1,f
  2877     154E  2D4B               	goto	u4197
  2878     154F  0BF4               	decfsz	??_TSL2561_Init+2,f
  2879     1550  2D4B               	goto	u4197
  2880     1551  2D52               	nop2
  2881     1552                     l316:
  2882     1552  0008               	return
  2883     1553                     __end_of_TSL2561_Init:
  2884                           
  2885                           	psect	text11
  2886     1553                     __ptext11:	
  2887 ;; *************** function _SendESP *****************
  2888 ;; Defined at:
  2889 ;;		line 152 in file "Dig2ProMaster.c"
  2890 ;; Parameters:    Size  Location     Type
  2891 ;;		None
  2892 ;; Auto vars:     Size  Location     Type
  2893 ;;		None
  2894 ;; Return value:  Size  Location     Type
  2895 ;;                  1    wreg      void 
  2896 ;; Registers used:
  2897 ;;		wreg, fsr0l, fsr0h, status,2, status,0, pclath, cstack
  2898 ;; Tracked objects:
  2899 ;;		On entry : 0/0
  2900 ;;		On exit  : 0/0
  2901 ;;		Unchanged: 0/0
  2902 ;; Data sizes:     COMMON   BANK0   BANK1   BANK3   BANK2
  2903 ;;      Params:         0       0       0       0       0
  2904 ;;      Locals:         0       0       0       0       0
  2905 ;;      Temps:          0       0       0       0       0
  2906 ;;      Totals:         0       0       0       0       0
  2907 ;;Total ram usage:        0 bytes
  2908 ;; Hardware stack levels used: 1
  2909 ;; Hardware stack levels required when called: 1
  2910 ;; This function calls:
  2911 ;;		_NumtoChar
  2912 ;;		_UART_write_char
  2913 ;;		_cadena
  2914 ;; This function is called by:
  2915 ;;		_main
  2916 ;; This function uses a non-reentrant model
  2917 ;;
  2918                           
  2919     1553                     _SendESP:	
  2920                           ;psect for function _SendESP
  2921                           
  2922     1553                     l3485:	
  2923                           ;incstack = 0
  2924                           ; Regs used in _SendESP: [wreg-fsr0h+status,2+status,0+pclath+cstack]
  2925                           
  2926                           
  2927                           ;Dig2ProMaster.c: 153:     UART_write_char('x');
  2928     1553  3078               	movlw	120
  2929     1554  160A  118A  215A  160A  118A  	fcall	_UART_write_char
  2930     1559                     l3487:
  2931                           
  2932                           ;Dig2ProMaster.c: 154:     bufferTotal[0] = buffer[0];
  2933     1559  1683               	bsf	3,5	;RP0=1, select bank1
  2934     155A  1303               	bcf	3,6	;RP1=0, select bank1
  2935     155B  0842               	movf	_buffer^(0+128),w
  2936     155C  1683               	bsf	3,5	;RP0=1, select bank3
  2937     155D  1703               	bsf	3,6	;RP1=1, select bank3
  2938     155E  00C6               	movwf	_bufferTotal^(0+384)
  2939     155F                     l3489:
  2940                           
  2941                           ;Dig2ProMaster.c: 155:     bufferTotal[1] = buffer[1];
  2942     155F  1683               	bsf	3,5	;RP0=1, select bank1
  2943     1560  1303               	bcf	3,6	;RP1=0, select bank1
  2944     1561  0843               	movf	(_buffer^(0+128)+1),w
  2945     1562  1683               	bsf	3,5	;RP0=1, select bank3
  2946     1563  1703               	bsf	3,6	;RP1=1, select bank3
  2947     1564  00C7               	movwf	(_bufferTotal^(0+384)+1)
  2948     1565                     l3491:
  2949                           
  2950                           ;Dig2ProMaster.c: 156:     bufferTotal[2] = buffer[2];
  2951     1565  1683               	bsf	3,5	;RP0=1, select bank1
  2952     1566  1303               	bcf	3,6	;RP1=0, select bank1
  2953     1567  0844               	movf	(_buffer^(0+128)+2),w
  2954     1568  1683               	bsf	3,5	;RP0=1, select bank3
  2955     1569  1703               	bsf	3,6	;RP1=1, select bank3
  2956     156A  00C8               	movwf	(_bufferTotal^(0+384)+2)
  2957     156B                     l3493:
  2958                           
  2959                           ;Dig2ProMaster.c: 157:     bufferTotal[3] = buffer[3];
  2960     156B  1683               	bsf	3,5	;RP0=1, select bank1
  2961     156C  1303               	bcf	3,6	;RP1=0, select bank1
  2962     156D  0845               	movf	(_buffer^(0+128)+3),w
  2963     156E  1683               	bsf	3,5	;RP0=1, select bank3
  2964     156F  1703               	bsf	3,6	;RP1=1, select bank3
  2965     1570  00C9               	movwf	(_bufferTotal^(0+384)+3)
  2966     1571                     l3495:
  2967                           
  2968                           ;Dig2ProMaster.c: 158:     bufferTotal[4] = buffer[4];
  2969     1571  1683               	bsf	3,5	;RP0=1, select bank1
  2970     1572  1303               	bcf	3,6	;RP1=0, select bank1
  2971     1573  0846               	movf	(_buffer^(0+128)+4),w
  2972     1574  1683               	bsf	3,5	;RP0=1, select bank3
  2973     1575  1703               	bsf	3,6	;RP1=1, select bank3
  2974     1576  00CA               	movwf	(_bufferTotal^(0+384)+4)
  2975     1577                     l3497:
  2976                           
  2977                           ;Dig2ProMaster.c: 159:     bufferTotal[5] = buffTime[0];
  2978     1577  1683               	bsf	3,5	;RP0=1, select bank1
  2979     1578  1303               	bcf	3,6	;RP1=0, select bank1
  2980     1579  0838               	movf	_buffTime^(0+128),w
  2981     157A  1683               	bsf	3,5	;RP0=1, select bank3
  2982     157B  1703               	bsf	3,6	;RP1=1, select bank3
  2983     157C  00CB               	movwf	(_bufferTotal^(0+384)+5)
  2984     157D                     l3499:
  2985                           
  2986                           ;Dig2ProMaster.c: 160:     bufferTotal[6] = buffTime[1];
  2987     157D  1683               	bsf	3,5	;RP0=1, select bank1
  2988     157E  1303               	bcf	3,6	;RP1=0, select bank1
  2989     157F  0839               	movf	(_buffTime^(0+128)+1),w
  2990     1580  1683               	bsf	3,5	;RP0=1, select bank3
  2991     1581  1703               	bsf	3,6	;RP1=1, select bank3
  2992     1582  00CC               	movwf	(_bufferTotal^(0+384)+6)
  2993     1583                     l3501:
  2994                           
  2995                           ;Dig2ProMaster.c: 161:     bufferTotal[7] = buffTime[2];
  2996     1583  1683               	bsf	3,5	;RP0=1, select bank1
  2997     1584  1303               	bcf	3,6	;RP1=0, select bank1
  2998     1585  083A               	movf	(_buffTime^(0+128)+2),w
  2999     1586  1683               	bsf	3,5	;RP0=1, select bank3
  3000     1587  1703               	bsf	3,6	;RP1=1, select bank3
  3001     1588  00CD               	movwf	(_bufferTotal^(0+384)+7)
  3002     1589                     l3503:
  3003                           
  3004                           ;Dig2ProMaster.c: 162:     bufferTotal[8] = buffTime[3];
  3005     1589  1683               	bsf	3,5	;RP0=1, select bank1
  3006     158A  1303               	bcf	3,6	;RP1=0, select bank1
  3007     158B  083B               	movf	(_buffTime^(0+128)+3),w
  3008     158C  1683               	bsf	3,5	;RP0=1, select bank3
  3009     158D  1703               	bsf	3,6	;RP1=1, select bank3
  3010     158E  00CE               	movwf	(_bufferTotal^(0+384)+8)
  3011     158F                     l3505:
  3012                           
  3013                           ;Dig2ProMaster.c: 163:     bufferTotal[9] = buffTime[4];
  3014     158F  1683               	bsf	3,5	;RP0=1, select bank1
  3015     1590  1303               	bcf	3,6	;RP1=0, select bank1
  3016     1591  083C               	movf	(_buffTime^(0+128)+4),w
  3017     1592  1683               	bsf	3,5	;RP0=1, select bank3
  3018     1593  1703               	bsf	3,6	;RP1=1, select bank3
  3019     1594  00CF               	movwf	(_bufferTotal^(0+384)+9)
  3020     1595                     l3507:
  3021                           
  3022                           ;Dig2ProMaster.c: 164:     bufferTotal[10] = buffTime[5];
  3023     1595  1683               	bsf	3,5	;RP0=1, select bank1
  3024     1596  1303               	bcf	3,6	;RP1=0, select bank1
  3025     1597  083D               	movf	(_buffTime^(0+128)+5),w
  3026     1598  1683               	bsf	3,5	;RP0=1, select bank3
  3027     1599  1703               	bsf	3,6	;RP1=1, select bank3
  3028     159A  00D0               	movwf	(_bufferTotal^(0+384)+10)
  3029     159B                     l3509:
  3030                           
  3031                           ;Dig2ProMaster.c: 165:     bufferTotal[11] = buffTime[6];
  3032     159B  1683               	bsf	3,5	;RP0=1, select bank1
  3033     159C  1303               	bcf	3,6	;RP1=0, select bank1
  3034     159D  083E               	movf	(_buffTime^(0+128)+6),w
  3035     159E  1683               	bsf	3,5	;RP0=1, select bank3
  3036     159F  1703               	bsf	3,6	;RP1=1, select bank3
  3037     15A0  00D1               	movwf	(_bufferTotal^(0+384)+11)
  3038     15A1                     l3511:
  3039                           
  3040                           ;Dig2ProMaster.c: 166:     bufferTotal[12] = buffTime[7];
  3041     15A1  1683               	bsf	3,5	;RP0=1, select bank1
  3042     15A2  1303               	bcf	3,6	;RP1=0, select bank1
  3043     15A3  083F               	movf	(_buffTime^(0+128)+7),w
  3044     15A4  1683               	bsf	3,5	;RP0=1, select bank3
  3045     15A5  1703               	bsf	3,6	;RP1=1, select bank3
  3046     15A6  00D2               	movwf	(_bufferTotal^(0+384)+12)
  3047     15A7                     l3513:
  3048                           
  3049                           ;Dig2ProMaster.c: 167:     bufferTotal[13] = NumtoChar(light);
  3050     15A7  1683               	bsf	3,5	;RP0=1, select bank1
  3051     15A8  1303               	bcf	3,6	;RP1=0, select bank1
  3052     15A9  0829               	movf	(_light+1)^(0+128),w
  3053     15AA  00F1               	movwf	NumtoChar@a+1
  3054     15AB  0828               	movf	_light^(0+128),w
  3055     15AC  00F0               	movwf	NumtoChar@a
  3056     15AD  160A  118A  23BC  160A  118A  	fcall	_NumtoChar
  3057     15B2  1683               	bsf	3,5	;RP0=1, select bank3
  3058     15B3  1703               	bsf	3,6	;RP1=1, select bank3
  3059     15B4  00D3               	movwf	(_bufferTotal^(0+384)+13)
  3060     15B5                     l3515:
  3061                           
  3062                           ;Dig2ProMaster.c: 168:     bufferTotal[14] = '\n';
  3063     15B5  300A               	movlw	10
  3064     15B6  00D4               	movwf	(_bufferTotal^(0+384)+14)
  3065     15B7                     l3517:
  3066                           
  3067                           ;Dig2ProMaster.c: 169:     cadena(bufferTotal);
  3068     15B7  30C6               	movlw	(low (_bufferTotal| (0+256)))& (0+255)
  3069     15B8  160A  118A  2435  160A  118A  	fcall	_cadena
  3070     15BD                     l298:
  3071     15BD  0008               	return
  3072     15BE                     __end_of_SendESP:
  3073                           
  3074                           	psect	text12
  3075     1435                     __ptext12:	
  3076 ;; *************** function _cadena *****************
  3077 ;; Defined at:
  3078 ;;		line 138 in file "Dig2ProMaster.c"
  3079 ;; Parameters:    Size  Location     Type
  3080 ;;  txt             1    wreg     PTR unsigned char 
  3081 ;;		 -> bufferTotal(15), 
  3082 ;; Auto vars:     Size  Location     Type
  3083 ;;  txt             1    6[COMMON] PTR unsigned char 
  3084 ;;		 -> bufferTotal(15), 
  3085 ;;  i               2    4[COMMON] int 
  3086 ;;  cont0           2    2[COMMON] int 
  3087 ;; Return value:  Size  Location     Type
  3088 ;;                  1    wreg      void 
  3089 ;; Registers used:
  3090 ;;		wreg, fsr0l, fsr0h, status,2, status,0
  3091 ;; Tracked objects:
  3092 ;;		On entry : 0/0
  3093 ;;		On exit  : 0/0
  3094 ;;		Unchanged: 0/0
  3095 ;; Data sizes:     COMMON   BANK0   BANK1   BANK3   BANK2
  3096 ;;      Params:         0       0       0       0       0
  3097 ;;      Locals:         5       0       0       0       0
  3098 ;;      Temps:          2       0       0       0       0
  3099 ;;      Totals:         7       0       0       0       0
  3100 ;;Total ram usage:        7 bytes
  3101 ;; Hardware stack levels used: 1
  3102 ;; This function calls:
  3103 ;;		Nothing
  3104 ;; This function is called by:
  3105 ;;		_SendESP
  3106 ;; This function uses a non-reentrant model
  3107 ;;
  3108                           
  3109     1435                     _cadena:	
  3110                           ;psect for function _cadena
  3111                           
  3112                           
  3113                           ;incstack = 0
  3114                           ; Regs used in _cadena: [wreg-fsr0h+status,2+status,0]
  3115                           ;cadena@txt stored from wreg
  3116     1435  00F6               	movwf	cadena@txt
  3117     1436                     l3205:
  3118                           
  3119                           ;Dig2ProMaster.c: 139:     int cont0 = 0;
  3120     1436  01F2               	clrf	cadena@cont0
  3121     1437  01F3               	clrf	cadena@cont0+1
  3122                           
  3123                           ;Dig2ProMaster.c: 140:     while(txt[cont0]!=0){
  3124     1438  2C3F               	goto	l3209
  3125     1439                     l3207:
  3126                           
  3127                           ;Dig2ProMaster.c: 141:         cont0++;
  3128     1439  3001               	movlw	1
  3129     143A  07F2               	addwf	cadena@cont0,f
  3130     143B  1803               	skipnc
  3131     143C  0AF3               	incf	cadena@cont0+1,f
  3132     143D  3000               	movlw	0
  3133     143E  07F3               	addwf	cadena@cont0+1,f
  3134     143F                     l3209:
  3135                           
  3136                           ;Dig2ProMaster.c: 140:     while(txt[cont0]!=0){
  3137     143F  0872               	movf	cadena@cont0,w
  3138     1440  0776               	addwf	cadena@txt,w
  3139     1441  00F0               	movwf	??_cadena
  3140     1442  0870               	movf	??_cadena,w
  3141     1443  0084               	movwf	4
  3142     1444  1783               	bsf	3,7	;select IRP bank2
  3143     1445  0800               	movf	0,w
  3144     1446  1D03               	btfss	3,2
  3145     1447  2C49               	goto	u4061
  3146     1448  2C4A               	goto	u4060
  3147     1449                     u4061:
  3148     1449  2C39               	goto	l3207
  3149     144A                     u4060:
  3150     144A                     l3211:
  3151                           
  3152                           ;Dig2ProMaster.c: 145:     for(int i = 0; i < cont0; i++){
  3153     144A  01F4               	clrf	cadena@i
  3154     144B  01F5               	clrf	cadena@i+1
  3155     144C  2C66               	goto	l3219
  3156     144D                     l3213:
  3157                           
  3158                           ;Dig2ProMaster.c: 146:         _delay((unsigned long)((20)*(8000000/4000.0)));
  3159     144D  3034               	movlw	52
  3160     144E  00F1               	movwf	??_cadena+1
  3161     144F  30F1               	movlw	241
  3162     1450  00F0               	movwf	??_cadena
  3163     1451                     u4207:
  3164     1451  0BF0               	decfsz	??_cadena,f
  3165     1452  2C51               	goto	u4207
  3166     1453  0BF1               	decfsz	??_cadena+1,f
  3167     1454  2C51               	goto	u4207
  3168     1455  2C56               	nop2
  3169     1456                     l3215:
  3170                           
  3171                           ;Dig2ProMaster.c: 147:         TXREG = txt[i];
  3172     1456  0874               	movf	cadena@i,w
  3173     1457  0776               	addwf	cadena@txt,w
  3174     1458  00F0               	movwf	??_cadena
  3175     1459  0870               	movf	??_cadena,w
  3176     145A  0084               	movwf	4
  3177     145B  1783               	bsf	3,7	;select IRP bank2
  3178     145C  0800               	movf	0,w
  3179     145D  1283               	bcf	3,5	;RP0=0, select bank0
  3180     145E  1303               	bcf	3,6	;RP1=0, select bank0
  3181     145F  0099               	movwf	25	;volatile
  3182     1460                     l3217:
  3183                           
  3184                           ;Dig2ProMaster.c: 148:     }
  3185     1460  3001               	movlw	1
  3186     1461  07F4               	addwf	cadena@i,f
  3187     1462  1803               	skipnc
  3188     1463  0AF5               	incf	cadena@i+1,f
  3189     1464  3000               	movlw	0
  3190     1465  07F5               	addwf	cadena@i+1,f
  3191     1466                     l3219:
  3192     1466  0875               	movf	cadena@i+1,w
  3193     1467  3A80               	xorlw	128
  3194     1468  00F0               	movwf	??_cadena
  3195     1469  0873               	movf	cadena@cont0+1,w
  3196     146A  3A80               	xorlw	128
  3197     146B  0270               	subwf	??_cadena,w
  3198     146C  1D03               	skipz
  3199     146D  2C70               	goto	u4075
  3200     146E  0872               	movf	cadena@cont0,w
  3201     146F  0274               	subwf	cadena@i,w
  3202     1470                     u4075:
  3203     1470  1C03               	skipc
  3204     1471  2C73               	goto	u4071
  3205     1472  2C74               	goto	u4070
  3206     1473                     u4071:
  3207     1473  2C4D               	goto	l3213
  3208     1474                     u4070:
  3209     1474                     l295:
  3210     1474  0008               	return
  3211     1475                     __end_of_cadena:
  3212                           
  3213                           	psect	text13
  3214     115A                     __ptext13:	
  3215 ;; *************** function _UART_write_char *****************
  3216 ;; Defined at:
  3217 ;;		line 32 in file "Usart.c"
  3218 ;; Parameters:    Size  Location     Type
  3219 ;;  c               1    wreg     unsigned char 
  3220 ;; Auto vars:     Size  Location     Type
  3221 ;;  c               1    0[COMMON] unsigned char 
  3222 ;; Return value:  Size  Location     Type
  3223 ;;                  1    wreg      void 
  3224 ;; Registers used:
  3225 ;;		wreg
  3226 ;; Tracked objects:
  3227 ;;		On entry : 0/0
  3228 ;;		On exit  : 0/0
  3229 ;;		Unchanged: 0/0
  3230 ;; Data sizes:     COMMON   BANK0   BANK1   BANK3   BANK2
  3231 ;;      Params:         0       0       0       0       0
  3232 ;;      Locals:         1       0       0       0       0
  3233 ;;      Temps:          0       0       0       0       0
  3234 ;;      Totals:         1       0       0       0       0
  3235 ;;Total ram usage:        1 bytes
  3236 ;; Hardware stack levels used: 1
  3237 ;; This function calls:
  3238 ;;		Nothing
  3239 ;; This function is called by:
  3240 ;;		_SendESP
  3241 ;; This function uses a non-reentrant model
  3242 ;;
  3243                           
  3244     115A                     _UART_write_char:	
  3245                           ;psect for function _UART_write_char
  3246                           
  3247                           
  3248                           ;incstack = 0
  3249                           ; Regs used in _UART_write_char: [wreg]
  3250                           ;UART_write_char@c stored from wreg
  3251     115A  00F0               	movwf	UART_write_char@c
  3252     115B                     l3221:
  3253                           
  3254                           ;Usart.c: 33:     TXREG = c;
  3255     115B  0870               	movf	UART_write_char@c,w
  3256     115C  1283               	bcf	3,5	;RP0=0, select bank0
  3257     115D  1303               	bcf	3,6	;RP1=0, select bank0
  3258     115E  0099               	movwf	25	;volatile
  3259     115F                     l365:
  3260     115F  0008               	return
  3261     1160                     __end_of_UART_write_char:
  3262                           
  3263                           	psect	text14
  3264     006B                     __ptext14:	
  3265 ;; *************** function _RTC *****************
  3266 ;; Defined at:
  3267 ;;		line 172 in file "Dig2ProMaster.c"
  3268 ;; Parameters:    Size  Location     Type
  3269 ;;		None
  3270 ;; Auto vars:     Size  Location     Type
  3271 ;;		None
  3272 ;; Return value:  Size  Location     Type
  3273 ;;                  1    wreg      void 
  3274 ;; Registers used:
  3275 ;;		wreg, fsr0l, fsr0h, status,2, status,0, btemp+1, pclath, cstack
  3276 ;; Tracked objects:
  3277 ;;		On entry : 0/0
  3278 ;;		On exit  : 0/0
  3279 ;;		Unchanged: 0/0
  3280 ;; Data sizes:     COMMON   BANK0   BANK1   BANK3   BANK2
  3281 ;;      Params:         0       0       0       0       0
  3282 ;;      Locals:         0       0       0       0       0
  3283 ;;      Temps:          0       0       0       0       0
  3284 ;;      Totals:         0       0       0       0       0
  3285 ;;Total ram usage:        0 bytes
  3286 ;; Hardware stack levels used: 1
  3287 ;; Hardware stack levels required when called: 3
  3288 ;; This function calls:
  3289 ;;		_I2C_Master_Read
  3290 ;;		_I2C_Master_RepeatedStart
  3291 ;;		_I2C_Master_Start
  3292 ;;		_I2C_Master_Stop
  3293 ;;		_I2C_Master_Write
  3294 ;;		_Lcd_Set_Cursor
  3295 ;;		_Lcd_Write_String
  3296 ;;		_NumtoChar
  3297 ;; This function is called by:
  3298 ;;		_main
  3299 ;; This function uses a non-reentrant model
  3300 ;;
  3301                           
  3302     006B                     _RTC:	
  3303                           ;psect for function _RTC
  3304                           
  3305     006B                     l3451:	
  3306                           ;incstack = 0
  3307                           ; Regs used in _RTC: [wreg-fsr0h+status,2+status,0+btemp+1+pclath+cstack]
  3308                           
  3309                           
  3310                           ;Dig2ProMaster.c: 173:     I2C_Master_Start();
  3311     006B  160A  118A  2171  120A  118A  	fcall	_I2C_Master_Start
  3312                           
  3313                           ;Dig2ProMaster.c: 174:     I2C_Master_Write(0xD0);
  3314     0070  30D0               	movlw	208
  3315     0071  00F0               	movwf	I2C_Master_Write@d
  3316     0072  3000               	movlw	0
  3317     0073  00F1               	movwf	I2C_Master_Write@d+1
  3318     0074  160A  118A  2183  120A  118A  	fcall	_I2C_Master_Write
  3319                           
  3320                           ;Dig2ProMaster.c: 175:     I2C_Master_Write(0x00);
  3321     0079  3000               	movlw	0
  3322     007A  00F0               	movwf	I2C_Master_Write@d
  3323     007B  00F1               	movwf	I2C_Master_Write@d+1
  3324     007C  160A  118A  2183  120A  118A  	fcall	_I2C_Master_Write
  3325                           
  3326                           ;Dig2ProMaster.c: 176:     I2C_Master_RepeatedStart();
  3327     0081  160A  118A  2168  120A  118A  	fcall	_I2C_Master_RepeatedStart
  3328                           
  3329                           ;Dig2ProMaster.c: 177:     I2C_Master_Write(0xD1);
  3330     0086  30D1               	movlw	209
  3331     0087  00F0               	movwf	I2C_Master_Write@d
  3332     0088  3000               	movlw	0
  3333     0089  00F1               	movwf	I2C_Master_Write@d+1
  3334     008A  160A  118A  2183  120A  118A  	fcall	_I2C_Master_Write
  3335                           
  3336                           ;Dig2ProMaster.c: 178:     seconds = I2C_Master_Read(0);
  3337     008F  3000               	movlw	0
  3338     0090  00F0               	movwf	I2C_Master_Read@a
  3339     0091  00F1               	movwf	I2C_Master_Read@a+1
  3340     0092  160A  118A  2282  120A  118A  	fcall	_I2C_Master_Read
  3341     0097  0871               	movf	?_I2C_Master_Read+1,w
  3342     0098  1283               	bcf	3,5	;RP0=0, select bank0
  3343     0099  1303               	bcf	3,6	;RP1=0, select bank0
  3344     009A  00EF               	movwf	_seconds+1
  3345     009B  0870               	movf	?_I2C_Master_Read,w
  3346     009C  00EE               	movwf	_seconds
  3347                           
  3348                           ;Dig2ProMaster.c: 179:     I2C_Master_Stop();
  3349     009D  160A  118A  217A  120A  118A  	fcall	_I2C_Master_Stop
  3350                           
  3351                           ;Dig2ProMaster.c: 181:     I2C_Master_Start();
  3352     00A2  160A  118A  2171  120A  118A  	fcall	_I2C_Master_Start
  3353                           
  3354                           ;Dig2ProMaster.c: 182:     I2C_Master_Write(0xD0);
  3355     00A7  30D0               	movlw	208
  3356     00A8  00F0               	movwf	I2C_Master_Write@d
  3357     00A9  3000               	movlw	0
  3358     00AA  00F1               	movwf	I2C_Master_Write@d+1
  3359     00AB  160A  118A  2183  120A  118A  	fcall	_I2C_Master_Write
  3360                           
  3361                           ;Dig2ProMaster.c: 183:     I2C_Master_Write(0x01);
  3362     00B0  3001               	movlw	1
  3363     00B1  00F0               	movwf	I2C_Master_Write@d
  3364     00B2  3000               	movlw	0
  3365     00B3  00F1               	movwf	I2C_Master_Write@d+1
  3366     00B4  160A  118A  2183  120A  118A  	fcall	_I2C_Master_Write
  3367                           
  3368                           ;Dig2ProMaster.c: 184:     I2C_Master_RepeatedStart();
  3369     00B9  160A  118A  2168  120A  118A  	fcall	_I2C_Master_RepeatedStart
  3370                           
  3371                           ;Dig2ProMaster.c: 185:     I2C_Master_Write(0xD1);
  3372     00BE  30D1               	movlw	209
  3373     00BF  00F0               	movwf	I2C_Master_Write@d
  3374     00C0  3000               	movlw	0
  3375     00C1  00F1               	movwf	I2C_Master_Write@d+1
  3376     00C2  160A  118A  2183  120A  118A  	fcall	_I2C_Master_Write
  3377                           
  3378                           ;Dig2ProMaster.c: 186:     minutes = I2C_Master_Read(0);
  3379     00C7  3000               	movlw	0
  3380     00C8  00F0               	movwf	I2C_Master_Read@a
  3381     00C9  00F1               	movwf	I2C_Master_Read@a+1
  3382     00CA  160A  118A  2282  120A  118A  	fcall	_I2C_Master_Read
  3383     00CF  0871               	movf	?_I2C_Master_Read+1,w
  3384     00D0  1683               	bsf	3,5	;RP0=1, select bank1
  3385     00D1  1303               	bcf	3,6	;RP1=0, select bank1
  3386     00D2  00CA               	movwf	(_minutes+1)^(0+128)
  3387     00D3  0870               	movf	?_I2C_Master_Read,w
  3388     00D4  00C9               	movwf	_minutes^(0+128)
  3389                           
  3390                           ;Dig2ProMaster.c: 187:     I2C_Master_Stop();
  3391     00D5  160A  118A  217A  120A  118A  	fcall	_I2C_Master_Stop
  3392                           
  3393                           ;Dig2ProMaster.c: 189:     I2C_Master_Start();
  3394     00DA  160A  118A  2171  120A  118A  	fcall	_I2C_Master_Start
  3395                           
  3396                           ;Dig2ProMaster.c: 190:     I2C_Master_Write(0xD0);
  3397     00DF  30D0               	movlw	208
  3398     00E0  00F0               	movwf	I2C_Master_Write@d
  3399     00E1  3000               	movlw	0
  3400     00E2  00F1               	movwf	I2C_Master_Write@d+1
  3401     00E3  160A  118A  2183  120A  118A  	fcall	_I2C_Master_Write
  3402                           
  3403                           ;Dig2ProMaster.c: 191:     I2C_Master_Write(0x02);
  3404     00E8  3002               	movlw	2
  3405     00E9  00F0               	movwf	I2C_Master_Write@d
  3406     00EA  3000               	movlw	0
  3407     00EB  00F1               	movwf	I2C_Master_Write@d+1
  3408     00EC  160A  118A  2183  120A  118A  	fcall	_I2C_Master_Write
  3409                           
  3410                           ;Dig2ProMaster.c: 192:     I2C_Master_RepeatedStart();
  3411     00F1  160A  118A  2168  120A  118A  	fcall	_I2C_Master_RepeatedStart
  3412                           
  3413                           ;Dig2ProMaster.c: 193:     I2C_Master_Write(0xD1);
  3414     00F6  30D1               	movlw	209
  3415     00F7  00F0               	movwf	I2C_Master_Write@d
  3416     00F8  3000               	movlw	0
  3417     00F9  00F1               	movwf	I2C_Master_Write@d+1
  3418     00FA  160A  118A  2183  120A  118A  	fcall	_I2C_Master_Write
  3419                           
  3420                           ;Dig2ProMaster.c: 194:     hours = I2C_Master_Read(0);
  3421     00FF  3000               	movlw	0
  3422     0100  00F0               	movwf	I2C_Master_Read@a
  3423     0101  00F1               	movwf	I2C_Master_Read@a+1
  3424     0102  160A  118A  2282  120A  118A  	fcall	_I2C_Master_Read
  3425     0107  0871               	movf	?_I2C_Master_Read+1,w
  3426     0108  1683               	bsf	3,5	;RP0=1, select bank1
  3427     0109  1303               	bcf	3,6	;RP1=0, select bank1
  3428     010A  00C8               	movwf	(_hours+1)^(0+128)
  3429     010B  0870               	movf	?_I2C_Master_Read,w
  3430     010C  00C7               	movwf	_hours^(0+128)
  3431                           
  3432                           ;Dig2ProMaster.c: 195:     I2C_Master_Stop();
  3433     010D  160A  118A  217A  120A  118A  	fcall	_I2C_Master_Stop
  3434     0112                     l3453:
  3435                           
  3436                           ;Dig2ProMaster.c: 197:     decSeconds = seconds>>4;
  3437     0112  1283               	bcf	3,5	;RP0=0, select bank0
  3438     0113  1303               	bcf	3,6	;RP1=0, select bank0
  3439     0114  0E6E               	swapf	_seconds,w
  3440     0115  390F               	andlw	15
  3441     0116  1683               	bsf	3,5	;RP0=1, select bank1
  3442     0117  1303               	bcf	3,6	;RP1=0, select bank1
  3443     0118  00B4               	movwf	_decSeconds^(0+128)
  3444     0119  1283               	bcf	3,5	;RP0=0, select bank0
  3445     011A  1303               	bcf	3,6	;RP1=0, select bank0
  3446     011B  0E6F               	swapf	_seconds+1,w
  3447     011C  39F0               	andlw	240
  3448     011D  1683               	bsf	3,5	;RP0=1, select bank1
  3449     011E  1303               	bcf	3,6	;RP1=0, select bank1
  3450     011F  04B4               	iorwf	_decSeconds^(0+128),f
  3451     0120  1283               	bcf	3,5	;RP0=0, select bank0
  3452     0121  1303               	bcf	3,6	;RP1=0, select bank0
  3453     0122  0E6F               	swapf	_seconds+1,w
  3454     0123  390F               	andlw	15
  3455     0124  1683               	bsf	3,5	;RP0=1, select bank1
  3456     0125  1303               	bcf	3,6	;RP1=0, select bank1
  3457     0126  00B5               	movwf	(_decSeconds^(0+128)+1)
  3458     0127  30F0               	movlw	240
  3459     0128  1DB5               	btfss	(_decSeconds^(0+128)+1),3
  3460     0129  3000               	movlw	0
  3461     012A  04B5               	iorwf	(_decSeconds^(0+128)+1),f
  3462     012B                     l3455:
  3463                           
  3464                           ;Dig2ProMaster.c: 198:     uniSeconds = 0b00001111 & seconds;
  3465     012B  300F               	movlw	15
  3466     012C  1283               	bcf	3,5	;RP0=0, select bank0
  3467     012D  1303               	bcf	3,6	;RP1=0, select bank0
  3468     012E  056E               	andwf	_seconds,w
  3469     012F  1683               	bsf	3,5	;RP0=1, select bank1
  3470     0130  1303               	bcf	3,6	;RP1=0, select bank1
  3471     0131  00B2               	movwf	_uniSeconds^(0+128)
  3472     0132  3000               	movlw	0
  3473     0133  1283               	bcf	3,5	;RP0=0, select bank0
  3474     0134  1303               	bcf	3,6	;RP1=0, select bank0
  3475     0135  056F               	andwf	_seconds+1,w
  3476     0136  1683               	bsf	3,5	;RP0=1, select bank1
  3477     0137  1303               	bcf	3,6	;RP1=0, select bank1
  3478     0138  00B3               	movwf	(_uniSeconds+1)^(0+128)
  3479     0139                     l3457:
  3480                           
  3481                           ;Dig2ProMaster.c: 199:     decMinutes = minutes>>4;
  3482     0139  0E49               	swapf	_minutes^(0+128),w
  3483     013A  390F               	andlw	15
  3484     013B  00B0               	movwf	_decMinutes^(0+128)
  3485     013C  0E4A               	swapf	(_minutes+1)^(0+128),w
  3486     013D  39F0               	andlw	240
  3487     013E  04B0               	iorwf	_decMinutes^(0+128),f
  3488     013F  0E4A               	swapf	(_minutes+1)^(0+128),w
  3489     0140  390F               	andlw	15
  3490     0141  00B1               	movwf	(_decMinutes^(0+128)+1)
  3491     0142  30F0               	movlw	240
  3492     0143  1DB1               	btfss	(_decMinutes^(0+128)+1),3
  3493     0144  3000               	movlw	0
  3494     0145  04B1               	iorwf	(_decMinutes^(0+128)+1),f
  3495     0146                     l3459:
  3496                           
  3497                           ;Dig2ProMaster.c: 200:     uniMinutes = 0b00001111 & minutes;
  3498     0146  300F               	movlw	15
  3499     0147  0549               	andwf	_minutes^(0+128),w
  3500     0148  00AE               	movwf	_uniMinutes^(0+128)
  3501     0149  3000               	movlw	0
  3502     014A  054A               	andwf	(_minutes+1)^(0+128),w
  3503     014B  00AF               	movwf	(_uniMinutes+1)^(0+128)
  3504     014C                     l3461:
  3505                           
  3506                           ;Dig2ProMaster.c: 201:     decHours = hours>>4;
  3507     014C  0E47               	swapf	_hours^(0+128),w
  3508     014D  390F               	andlw	15
  3509     014E  00AC               	movwf	_decHours^(0+128)
  3510     014F  0E48               	swapf	(_hours+1)^(0+128),w
  3511     0150  39F0               	andlw	240
  3512     0151  04AC               	iorwf	_decHours^(0+128),f
  3513     0152  0E48               	swapf	(_hours+1)^(0+128),w
  3514     0153  390F               	andlw	15
  3515     0154  00AD               	movwf	(_decHours^(0+128)+1)
  3516     0155  30F0               	movlw	240
  3517     0156  1DAD               	btfss	(_decHours^(0+128)+1),3
  3518     0157  3000               	movlw	0
  3519     0158  04AD               	iorwf	(_decHours^(0+128)+1),f
  3520     0159                     l3463:
  3521                           
  3522                           ;Dig2ProMaster.c: 202:     uniHours = 0b00001111 & hours;
  3523     0159  300F               	movlw	15
  3524     015A  0547               	andwf	_hours^(0+128),w
  3525     015B  00AA               	movwf	_uniHours^(0+128)
  3526     015C  3000               	movlw	0
  3527     015D  0548               	andwf	(_hours+1)^(0+128),w
  3528     015E  00AB               	movwf	(_uniHours+1)^(0+128)
  3529     015F                     l3465:
  3530                           
  3531                           ;Dig2ProMaster.c: 204:     buffTime[0] = NumtoChar(decHours);
  3532     015F  082D               	movf	(_decHours+1)^(0+128),w
  3533     0160  00F1               	movwf	NumtoChar@a+1
  3534     0161  082C               	movf	_decHours^(0+128),w
  3535     0162  00F0               	movwf	NumtoChar@a
  3536     0163  160A  118A  23BC  120A  118A  	fcall	_NumtoChar
  3537     0168  1683               	bsf	3,5	;RP0=1, select bank1
  3538     0169  1303               	bcf	3,6	;RP1=0, select bank1
  3539     016A  00B8               	movwf	_buffTime^(0+128)
  3540     016B                     l3467:
  3541                           
  3542                           ;Dig2ProMaster.c: 205:     buffTime[1] = NumtoChar(uniHours);
  3543     016B  082B               	movf	(_uniHours+1)^(0+128),w
  3544     016C  00F1               	movwf	NumtoChar@a+1
  3545     016D  082A               	movf	_uniHours^(0+128),w
  3546     016E  00F0               	movwf	NumtoChar@a
  3547     016F  160A  118A  23BC  120A  118A  	fcall	_NumtoChar
  3548     0174  1683               	bsf	3,5	;RP0=1, select bank1
  3549     0175  1303               	bcf	3,6	;RP1=0, select bank1
  3550     0176  00B9               	movwf	(_buffTime^(0+128)+1)
  3551     0177                     l3469:
  3552                           
  3553                           ;Dig2ProMaster.c: 206:     buffTime[2] = ':';
  3554     0177  303A               	movlw	58
  3555     0178  00BA               	movwf	(_buffTime^(0+128)+2)
  3556     0179                     l3471:
  3557                           
  3558                           ;Dig2ProMaster.c: 207:     buffTime[3] = NumtoChar(decMinutes);
  3559     0179  0831               	movf	(_decMinutes+1)^(0+128),w
  3560     017A  00F1               	movwf	NumtoChar@a+1
  3561     017B  0830               	movf	_decMinutes^(0+128),w
  3562     017C  00F0               	movwf	NumtoChar@a
  3563     017D  160A  118A  23BC  120A  118A  	fcall	_NumtoChar
  3564     0182  1683               	bsf	3,5	;RP0=1, select bank1
  3565     0183  1303               	bcf	3,6	;RP1=0, select bank1
  3566     0184  00BB               	movwf	(_buffTime^(0+128)+3)
  3567     0185                     l3473:
  3568                           
  3569                           ;Dig2ProMaster.c: 208:     buffTime[4] = NumtoChar(uniMinutes);
  3570     0185  082F               	movf	(_uniMinutes+1)^(0+128),w
  3571     0186  00F1               	movwf	NumtoChar@a+1
  3572     0187  082E               	movf	_uniMinutes^(0+128),w
  3573     0188  00F0               	movwf	NumtoChar@a
  3574     0189  160A  118A  23BC  120A  118A  	fcall	_NumtoChar
  3575     018E  1683               	bsf	3,5	;RP0=1, select bank1
  3576     018F  1303               	bcf	3,6	;RP1=0, select bank1
  3577     0190  00BC               	movwf	(_buffTime^(0+128)+4)
  3578     0191                     l3475:
  3579                           
  3580                           ;Dig2ProMaster.c: 209:     buffTime[5] = ':';
  3581     0191  303A               	movlw	58
  3582     0192  00BD               	movwf	(_buffTime^(0+128)+5)
  3583     0193                     l3477:
  3584                           
  3585                           ;Dig2ProMaster.c: 210:     buffTime[6] = NumtoChar(decSeconds);
  3586     0193  0835               	movf	(_decSeconds+1)^(0+128),w
  3587     0194  00F1               	movwf	NumtoChar@a+1
  3588     0195  0834               	movf	_decSeconds^(0+128),w
  3589     0196  00F0               	movwf	NumtoChar@a
  3590     0197  160A  118A  23BC  120A  118A  	fcall	_NumtoChar
  3591     019C  1683               	bsf	3,5	;RP0=1, select bank1
  3592     019D  1303               	bcf	3,6	;RP1=0, select bank1
  3593     019E  00BE               	movwf	(_buffTime^(0+128)+6)
  3594     019F                     l3479:
  3595                           
  3596                           ;Dig2ProMaster.c: 211:     buffTime[7] = NumtoChar(uniSeconds);
  3597     019F  0833               	movf	(_uniSeconds+1)^(0+128),w
  3598     01A0  00F1               	movwf	NumtoChar@a+1
  3599     01A1  0832               	movf	_uniSeconds^(0+128),w
  3600     01A2  00F0               	movwf	NumtoChar@a
  3601     01A3  160A  118A  23BC  120A  118A  	fcall	_NumtoChar
  3602     01A8  1683               	bsf	3,5	;RP0=1, select bank1
  3603     01A9  1303               	bcf	3,6	;RP1=0, select bank1
  3604     01AA  00BF               	movwf	(_buffTime^(0+128)+7)
  3605     01AB                     l3481:
  3606                           
  3607                           ;Dig2ProMaster.c: 213:     Lcd_Set_Cursor(1,1);
  3608     01AB  01F4               	clrf	Lcd_Set_Cursor@b
  3609     01AC  0AF4               	incf	Lcd_Set_Cursor@b,f
  3610     01AD  3001               	movlw	1
  3611     01AE  160A  118A  21EC  120A  118A  	fcall	_Lcd_Set_Cursor
  3612     01B3                     l3483:
  3613                           
  3614                           ;Dig2ProMaster.c: 222:     Lcd_Write_String(buffTime);
  3615     01B3  30B8               	movlw	(low (_buffTime| 0))& (0+255)
  3616     01B4  00F3               	movwf	Lcd_Write_String@a
  3617     01B5  3000               	movlw	0
  3618     01B6  00F4               	movwf	Lcd_Write_String@a+1
  3619     01B7  160A  118A  2475  120A  118A  	fcall	_Lcd_Write_String
  3620     01BC                     l301:
  3621     01BC  0008               	return
  3622     01BD                     __end_of_RTC:
  3623                           
  3624                           	psect	text15
  3625     13BC                     __ptext15:	
  3626 ;; *************** function _NumtoChar *****************
  3627 ;; Defined at:
  3628 ;;		line 358 in file "Dig2ProMaster.c"
  3629 ;; Parameters:    Size  Location     Type
  3630 ;;  a               2    0[COMMON] int 
  3631 ;; Auto vars:     Size  Location     Type
  3632 ;;		None
  3633 ;; Return value:  Size  Location     Type
  3634 ;;                  1    wreg      unsigned char 
  3635 ;; Registers used:
  3636 ;;		wreg, fsr0l, fsr0h, status,2, status,0
  3637 ;; Tracked objects:
  3638 ;;		On entry : 0/0
  3639 ;;		On exit  : 0/0
  3640 ;;		Unchanged: 0/0
  3641 ;; Data sizes:     COMMON   BANK0   BANK1   BANK3   BANK2
  3642 ;;      Params:         2       0       0       0       0
  3643 ;;      Locals:         0       0       0       0       0
  3644 ;;      Temps:          0       0       0       0       0
  3645 ;;      Totals:         2       0       0       0       0
  3646 ;;Total ram usage:        2 bytes
  3647 ;; Hardware stack levels used: 1
  3648 ;; This function calls:
  3649 ;;		Nothing
  3650 ;; This function is called by:
  3651 ;;		_SendESP
  3652 ;;		_RTC
  3653 ;; This function uses a non-reentrant model
  3654 ;;
  3655                           
  3656     13BC                     _NumtoChar:	
  3657                           ;psect for function _NumtoChar
  3658                           
  3659     13BC                     l3225:	
  3660                           ;incstack = 0
  3661                           ; Regs used in _NumtoChar: [wreg-fsr0h+status,2+status,0]
  3662                           
  3663                           
  3664                           ;Dig2ProMaster.c: 359:     switch(a){
  3665     13BC  2BD1               	goto	l3269
  3666     13BD                     l3227:
  3667                           
  3668                           ;Dig2ProMaster.c: 361:             return '0';
  3669     13BD  3030               	movlw	48
  3670     13BE  2BF6               	goto	l326
  3671     13BF                     l3231:
  3672                           
  3673                           ;Dig2ProMaster.c: 363:             return '1';
  3674     13BF  3031               	movlw	49
  3675     13C0  2BF6               	goto	l326
  3676     13C1                     l3235:
  3677                           
  3678                           ;Dig2ProMaster.c: 365:             return '2';
  3679     13C1  3032               	movlw	50
  3680     13C2  2BF6               	goto	l326
  3681     13C3                     l3239:
  3682                           
  3683                           ;Dig2ProMaster.c: 367:             return '3';
  3684     13C3  3033               	movlw	51
  3685     13C4  2BF6               	goto	l326
  3686     13C5                     l3243:
  3687                           
  3688                           ;Dig2ProMaster.c: 369:             return '4';
  3689     13C5  3034               	movlw	52
  3690     13C6  2BF6               	goto	l326
  3691     13C7                     l3247:
  3692                           
  3693                           ;Dig2ProMaster.c: 371:             return '5';
  3694     13C7  3035               	movlw	53
  3695     13C8  2BF6               	goto	l326
  3696     13C9                     l3251:
  3697                           
  3698                           ;Dig2ProMaster.c: 373:             return '6';
  3699     13C9  3036               	movlw	54
  3700     13CA  2BF6               	goto	l326
  3701     13CB                     l3255:
  3702                           
  3703                           ;Dig2ProMaster.c: 375:             return '7';
  3704     13CB  3037               	movlw	55
  3705     13CC  2BF6               	goto	l326
  3706     13CD                     l3259:
  3707                           
  3708                           ;Dig2ProMaster.c: 377:             return '8';
  3709     13CD  3038               	movlw	56
  3710     13CE  2BF6               	goto	l326
  3711     13CF                     l3263:
  3712                           
  3713                           ;Dig2ProMaster.c: 379:             return '9';
  3714     13CF  3039               	movlw	57
  3715     13D0  2BF6               	goto	l326
  3716     13D1                     l3269:
  3717                           
  3718                           ; Switch on 2 bytes has been partitioned into a top level switch of size 1, and 1 sub-sw
      +                          itches
  3719                           ; Switch size 1, requested type "simple"
  3720                           ; Number of cases is 1, Range of values is 0 to 0
  3721                           ; switch strategies available:
  3722                           ; Name         Instructions Cycles
  3723                           ; simple_byte            4     3 (average)
  3724                           ; direct_byte           11     8 (fixed)
  3725                           ; jumptable            260     6 (fixed)
  3726                           ;	Chosen strategy is simple_byte
  3727     13D1  0871               	movf	NumtoChar@a+1,w
  3728     13D2  3A00               	xorlw	0	; case 0
  3729     13D3  1903               	skipnz
  3730     13D4  2BD6               	goto	l3585
  3731     13D5  2BF6               	goto	l326
  3732     13D6                     l3585:
  3733                           
  3734                           ; Switch size 1, requested type "simple"
  3735                           ; Number of cases is 10, Range of values is 0 to 9
  3736                           ; switch strategies available:
  3737                           ; Name         Instructions Cycles
  3738                           ; simple_byte           31    16 (average)
  3739                           ; direct_byte           38     8 (fixed)
  3740                           ; jumptable            260     6 (fixed)
  3741                           ;	Chosen strategy is simple_byte
  3742     13D6  0870               	movf	NumtoChar@a,w
  3743     13D7  3A00               	xorlw	0	; case 0
  3744     13D8  1903               	skipnz
  3745     13D9  2BBD               	goto	l3227
  3746     13DA  3A01               	xorlw	1	; case 1
  3747     13DB  1903               	skipnz
  3748     13DC  2BBF               	goto	l3231
  3749     13DD  3A03               	xorlw	3	; case 2
  3750     13DE  1903               	skipnz
  3751     13DF  2BC1               	goto	l3235
  3752     13E0  3A01               	xorlw	1	; case 3
  3753     13E1  1903               	skipnz
  3754     13E2  2BC3               	goto	l3239
  3755     13E3  3A07               	xorlw	7	; case 4
  3756     13E4  1903               	skipnz
  3757     13E5  2BC5               	goto	l3243
  3758     13E6  3A01               	xorlw	1	; case 5
  3759     13E7  1903               	skipnz
  3760     13E8  2BC7               	goto	l3247
  3761     13E9  3A03               	xorlw	3	; case 6
  3762     13EA  1903               	skipnz
  3763     13EB  2BC9               	goto	l3251
  3764     13EC  3A01               	xorlw	1	; case 7
  3765     13ED  1903               	skipnz
  3766     13EE  2BCB               	goto	l3255
  3767     13EF  3A0F               	xorlw	15	; case 8
  3768     13F0  1903               	skipnz
  3769     13F1  2BCD               	goto	l3259
  3770     13F2  3A01               	xorlw	1	; case 9
  3771     13F3  1903               	skipnz
  3772     13F4  2BCF               	goto	l3263
  3773     13F5  2BF6               	goto	l326
  3774     13F6                     l326:
  3775     13F6  0008               	return
  3776     13F7                     __end_of_NumtoChar:
  3777                           
  3778                           	psect	text16
  3779     080B                     __ptext16:	
  3780 ;; *************** function _Lcd_Init *****************
  3781 ;; Defined at:
  3782 ;;		line 69 in file "LCD8bits.c"
  3783 ;; Parameters:    Size  Location     Type
  3784 ;;		None
  3785 ;; Auto vars:     Size  Location     Type
  3786 ;;		None
  3787 ;; Return value:  Size  Location     Type
  3788 ;;                  1    wreg      void 
  3789 ;; Registers used:
  3790 ;;		wreg, status,2, status,0, pclath, cstack
  3791 ;; Tracked objects:
  3792 ;;		On entry : 0/0
  3793 ;;		On exit  : 0/0
  3794 ;;		Unchanged: 0/0
  3795 ;; Data sizes:     COMMON   BANK0   BANK1   BANK3   BANK2
  3796 ;;      Params:         0       0       0       0       0
  3797 ;;      Locals:         0       0       0       0       0
  3798 ;;      Temps:          2       0       0       0       0
  3799 ;;      Totals:         2       0       0       0       0
  3800 ;;Total ram usage:        2 bytes
  3801 ;; Hardware stack levels used: 1
  3802 ;; Hardware stack levels required when called: 2
  3803 ;; This function calls:
  3804 ;;		_Lcd_Cmd
  3805 ;;		_Lcd_Port
  3806 ;; This function is called by:
  3807 ;;		_main
  3808 ;; This function uses a non-reentrant model
  3809 ;;
  3810                           
  3811     080B                     _Lcd_Init:	
  3812                           ;psect for function _Lcd_Init
  3813                           
  3814     080B                     l3327:	
  3815                           ;incstack = 0
  3816                           ; Regs used in _Lcd_Init: [wreg+status,2+status,0+pclath+cstack]
  3817                           
  3818                           
  3819                           ;LCD8bits.c: 70:     Lcd_Port(0x00);
  3820     080B  3000               	movlw	0
  3821     080C  160A  118A  23F7  120A  158A  	fcall	_Lcd_Port
  3822     0811                     l3329:
  3823                           
  3824                           ;LCD8bits.c: 71:     _delay((unsigned long)((20)*(8000000/4000.0)));
  3825     0811  3034               	movlw	52
  3826     0812  00F5               	movwf	??_Lcd_Init+1
  3827     0813  30F1               	movlw	241
  3828     0814  00F4               	movwf	??_Lcd_Init
  3829     0815                     u4217:
  3830     0815  0BF4               	decfsz	??_Lcd_Init,f
  3831     0816  2815               	goto	u4217
  3832     0817  0BF5               	decfsz	??_Lcd_Init+1,f
  3833     0818  2815               	goto	u4217
  3834     0819  281A               	nop2
  3835     081A                     l3331:
  3836                           
  3837                           ;LCD8bits.c: 72:     Lcd_Cmd(0x30);
  3838     081A  3030               	movlw	48
  3839     081B  160A  118A  21D2  120A  158A  	fcall	_Lcd_Cmd
  3840                           
  3841                           ;LCD8bits.c: 73:     _delay((unsigned long)((5)*(8000000/4000.0)));
  3842     0820  300D               	movlw	13
  3843     0821  00F5               	movwf	??_Lcd_Init+1
  3844     0822  30FB               	movlw	251
  3845     0823  00F4               	movwf	??_Lcd_Init
  3846     0824                     u4227:
  3847     0824  0BF4               	decfsz	??_Lcd_Init,f
  3848     0825  2824               	goto	u4227
  3849     0826  0BF5               	decfsz	??_Lcd_Init+1,f
  3850     0827  2824               	goto	u4227
  3851     0828  2829               	nop2
  3852     0829                     l3333:
  3853                           
  3854                           ;LCD8bits.c: 74:     Lcd_Cmd(0x30);
  3855     0829  3030               	movlw	48
  3856     082A  160A  118A  21D2  120A  158A  	fcall	_Lcd_Cmd
  3857     082F                     l3335:
  3858                           
  3859                           ;LCD8bits.c: 75:     _delay((unsigned long)((11)*(8000000/4000.0)));
  3860     082F  301D               	movlw	29
  3861     0830  00F5               	movwf	??_Lcd_Init+1
  3862     0831  3091               	movlw	145
  3863     0832  00F4               	movwf	??_Lcd_Init
  3864     0833                     u4237:
  3865     0833  0BF4               	decfsz	??_Lcd_Init,f
  3866     0834  2833               	goto	u4237
  3867     0835  0BF5               	decfsz	??_Lcd_Init+1,f
  3868     0836  2833               	goto	u4237
  3869                           
  3870                           ;LCD8bits.c: 76:     Lcd_Cmd(0x30);
  3871     0837  3030               	movlw	48
  3872     0838  160A  118A  21D2  120A  158A  	fcall	_Lcd_Cmd
  3873                           
  3874                           ;LCD8bits.c: 78:     Lcd_Cmd(0x38);
  3875     083D  3038               	movlw	56
  3876     083E  160A  118A  21D2  120A  158A  	fcall	_Lcd_Cmd
  3877                           
  3878                           ;LCD8bits.c: 79:     Lcd_Cmd(0x0C);
  3879     0843  300C               	movlw	12
  3880     0844  160A  118A  21D2  120A  158A  	fcall	_Lcd_Cmd
  3881                           
  3882                           ;LCD8bits.c: 80:     Lcd_Cmd(0x06);
  3883     0849  3006               	movlw	6
  3884     084A  160A  118A  21D2  120A  158A  	fcall	_Lcd_Cmd
  3885     084F                     l111:
  3886     084F  0008               	return
  3887     0850                     __end_of_Lcd_Init:
  3888                           
  3889                           	psect	text17
  3890     1257                     __ptext17:	
  3891 ;; *************** function _DCOnOff *****************
  3892 ;; Defined at:
  3893 ;;		line 108 in file "Dig2ProMaster.c"
  3894 ;; Parameters:    Size  Location     Type
  3895 ;;		None
  3896 ;; Auto vars:     Size  Location     Type
  3897 ;;		None
  3898 ;; Return value:  Size  Location     Type
  3899 ;;                  1    wreg      void 
  3900 ;; Registers used:
  3901 ;;		wreg, status,2, status,0, btemp+1, pclath, cstack
  3902 ;; Tracked objects:
  3903 ;;		On entry : 0/0
  3904 ;;		On exit  : 0/0
  3905 ;;		Unchanged: 0/0
  3906 ;; Data sizes:     COMMON   BANK0   BANK1   BANK3   BANK2
  3907 ;;      Params:         0       0       0       0       0
  3908 ;;      Locals:         0       0       0       0       0
  3909 ;;      Temps:          0       0       0       0       0
  3910 ;;      Totals:         0       0       0       0       0
  3911 ;;Total ram usage:        0 bytes
  3912 ;; Hardware stack levels used: 1
  3913 ;; Hardware stack levels required when called: 1
  3914 ;; This function calls:
  3915 ;;		___fltol
  3916 ;; This function is called by:
  3917 ;;		_main
  3918 ;; This function uses a non-reentrant model
  3919 ;;
  3920                           
  3921     1257                     _DCOnOff:	
  3922                           ;psect for function _DCOnOff
  3923                           
  3924     1257                     l3519:	
  3925                           ;incstack = 0
  3926                           ; Regs used in _DCOnOff: [wreg+status,2+status,0+btemp+1+pclath+cstack]
  3927                           
  3928                           
  3929                           ;Dig2ProMaster.c: 109:     if(light == 1 && (int)temperature >= 25){
  3930     1257  1683               	bsf	3,5	;RP0=1, select bank1
  3931     1258  1303               	bcf	3,6	;RP1=0, select bank1
  3932     1259  0328               	decf	_light^(0+128),w
  3933     125A  0429               	iorwf	(_light+1)^(0+128),w
  3934     125B  1D03               	btfss	3,2
  3935     125C  2A5E               	goto	u4171
  3936     125D  2A5F               	goto	u4170
  3937     125E                     u4171:
  3938     125E  2A7D               	goto	l281
  3939     125F                     u4170:
  3940     125F                     l3521:
  3941     125F  0823               	movf	(_temperature+3)^(0+128),w
  3942     1260  00F3               	movwf	___fltol@f1+3
  3943     1261  0822               	movf	(_temperature+2)^(0+128),w
  3944     1262  00F2               	movwf	___fltol@f1+2
  3945     1263  0821               	movf	(_temperature+1)^(0+128),w
  3946     1264  00F1               	movwf	___fltol@f1+1
  3947     1265  0820               	movf	_temperature^(0+128),w
  3948     1266  00F0               	movwf	___fltol@f1
  3949     1267  160A  118A  2630  160A  118A  	fcall	___fltol
  3950     126C  0871               	movf	?___fltol+1,w
  3951     126D  3A80               	xorlw	128
  3952     126E  00FF               	movwf	btemp+1
  3953     126F  3080               	movlw	128
  3954     1270  027F               	subwf	btemp+1,w
  3955     1271  1D03               	skipz
  3956     1272  2A75               	goto	u4185
  3957     1273  3019               	movlw	25
  3958     1274  0270               	subwf	?___fltol,w
  3959     1275                     u4185:
  3960     1275  1C03               	skipc
  3961     1276  2A78               	goto	u4181
  3962     1277  2A79               	goto	u4180
  3963     1278                     u4181:
  3964     1278  2A7D               	goto	l281
  3965     1279                     u4180:
  3966     1279                     l3523:
  3967                           
  3968                           ;Dig2ProMaster.c: 110:         PORTBbits.RB7 = 1;
  3969     1279  1283               	bcf	3,5	;RP0=0, select bank0
  3970     127A  1303               	bcf	3,6	;RP1=0, select bank0
  3971     127B  1786               	bsf	6,7	;volatile
  3972                           
  3973                           ;Dig2ProMaster.c: 111:     }else{
  3974     127C  2A80               	goto	l3525
  3975     127D                     l281:
  3976                           
  3977                           ;Dig2ProMaster.c: 112:         PORTBbits.RB7 = 0;
  3978     127D  1283               	bcf	3,5	;RP0=0, select bank0
  3979     127E  1303               	bcf	3,6	;RP1=0, select bank0
  3980     127F  1386               	bcf	6,7	;volatile
  3981     1280                     l3525:
  3982                           
  3983                           ;Dig2ProMaster.c: 114:     PORTA = DCmotor;
  3984     1280  0185               	clrf	5	;volatile
  3985     1281                     l283:
  3986     1281  0008               	return
  3987     1282                     __end_of_DCOnOff:
  3988                           
  3989                           	psect	text18
  3990     12B0                     __ptext18:	
  3991 ;; *************** function _AHT10_Soft_Reset *****************
  3992 ;; Defined at:
  3993 ;;		line 288 in file "Dig2ProMaster.c"
  3994 ;; Parameters:    Size  Location     Type
  3995 ;;		None
  3996 ;; Auto vars:     Size  Location     Type
  3997 ;;		None
  3998 ;; Return value:  Size  Location     Type
  3999 ;;                  1    wreg      void 
  4000 ;; Registers used:
  4001 ;;		wreg, status,2, status,0, pclath, cstack
  4002 ;; Tracked objects:
  4003 ;;		On entry : 0/0
  4004 ;;		On exit  : 0/0
  4005 ;;		Unchanged: 0/0
  4006 ;; Data sizes:     COMMON   BANK0   BANK1   BANK3   BANK2
  4007 ;;      Params:         0       0       0       0       0
  4008 ;;      Locals:         0       0       0       0       0
  4009 ;;      Temps:          2       0       0       0       0
  4010 ;;      Totals:         2       0       0       0       0
  4011 ;;Total ram usage:        2 bytes
  4012 ;; Hardware stack levels used: 1
  4013 ;; Hardware stack levels required when called: 2
  4014 ;; This function calls:
  4015 ;;		_I2C_Master_Start
  4016 ;;		_I2C_Master_Stop
  4017 ;;		_I2C_Master_Write
  4018 ;; This function is called by:
  4019 ;;		_main
  4020 ;; This function uses a non-reentrant model
  4021 ;;
  4022                           
  4023     12B0                     _AHT10_Soft_Reset:	
  4024                           ;psect for function _AHT10_Soft_Reset
  4025                           
  4026     12B0                     l3349:	
  4027                           ;incstack = 0
  4028                           ; Regs used in _AHT10_Soft_Reset: [wreg+status,2+status,0+pclath+cstack]
  4029                           
  4030                           
  4031                           ;Dig2ProMaster.c: 289:     _delay((unsigned long)((40)*(8000000/4000.0)));
  4032     12B0  3068               	movlw	104
  4033     12B1  00F3               	movwf	??_AHT10_Soft_Reset+1
  4034     12B2  30E4               	movlw	228
  4035     12B3  00F2               	movwf	??_AHT10_Soft_Reset
  4036     12B4                     u4247:
  4037     12B4  0BF2               	decfsz	??_AHT10_Soft_Reset,f
  4038     12B5  2AB4               	goto	u4247
  4039     12B6  0BF3               	decfsz	??_AHT10_Soft_Reset+1,f
  4040     12B7  2AB4               	goto	u4247
  4041     12B8  0000               	nop
  4042     12B9                     l3351:
  4043                           
  4044                           ;Dig2ProMaster.c: 290:     I2C_Master_Start();
  4045     12B9  160A  118A  2171  160A  118A  	fcall	_I2C_Master_Start
  4046     12BE                     l3353:
  4047                           
  4048                           ;Dig2ProMaster.c: 291:     I2C_Master_Write(0x70);
  4049     12BE  3070               	movlw	112
  4050     12BF  00F0               	movwf	I2C_Master_Write@d
  4051     12C0  3000               	movlw	0
  4052     12C1  00F1               	movwf	I2C_Master_Write@d+1
  4053     12C2  160A  118A  2183  160A  118A  	fcall	_I2C_Master_Write
  4054     12C7                     l3355:
  4055                           
  4056                           ;Dig2ProMaster.c: 292:     I2C_Master_Write(0xBA);
  4057     12C7  30BA               	movlw	186
  4058     12C8  00F0               	movwf	I2C_Master_Write@d
  4059     12C9  3000               	movlw	0
  4060     12CA  00F1               	movwf	I2C_Master_Write@d+1
  4061     12CB  160A  118A  2183  160A  118A  	fcall	_I2C_Master_Write
  4062     12D0                     l3357:
  4063                           
  4064                           ;Dig2ProMaster.c: 293:     I2C_Master_Stop();
  4065     12D0  160A  118A  217A  160A  118A  	fcall	_I2C_Master_Stop
  4066                           
  4067                           ;Dig2ProMaster.c: 294:     _delay((unsigned long)((25)*(8000000/4000.0)));
  4068     12D5  3041               	movlw	65
  4069     12D6  00F3               	movwf	??_AHT10_Soft_Reset+1
  4070     12D7  30EE               	movlw	238
  4071     12D8  00F2               	movwf	??_AHT10_Soft_Reset
  4072     12D9                     u4257:
  4073     12D9  0BF2               	decfsz	??_AHT10_Soft_Reset,f
  4074     12DA  2AD9               	goto	u4257
  4075     12DB  0BF3               	decfsz	??_AHT10_Soft_Reset+1,f
  4076     12DC  2AD9               	goto	u4257
  4077     12DD  0000               	nop
  4078     12DE                     l313:
  4079     12DE  0008               	return
  4080     12DF                     __end_of_AHT10_Soft_Reset:
  4081                           
  4082                           	psect	text19
  4083     0A0B                     __ptext19:	
  4084 ;; *************** function _AHT10_Read *****************
  4085 ;; Defined at:
  4086 ;;		line 247 in file "Dig2ProMaster.c"
  4087 ;; Parameters:    Size  Location     Type
  4088 ;;		None
  4089 ;; Auto vars:     Size  Location     Type
  4090 ;;  data            7   26[BANK1 ] unsigned char [7]
  4091 ;;  r               1    0        unsigned char 
  4092 ;; Return value:  Size  Location     Type
  4093 ;;                  1    wreg      void 
  4094 ;; Registers used:
  4095 ;;		wreg, fsr0l, fsr0h, status,2, status,0, btemp+1, pclath, cstack
  4096 ;; Tracked objects:
  4097 ;;		On entry : 0/0
  4098 ;;		On exit  : 0/0
  4099 ;;		Unchanged: 0/0
  4100 ;; Data sizes:     COMMON   BANK0   BANK1   BANK3   BANK2
  4101 ;;      Params:         0       0       0       0       0
  4102 ;;      Locals:         0       0       7       0       0
  4103 ;;      Temps:          0       0      14       0       0
  4104 ;;      Totals:         0       0      21       0       0
  4105 ;;Total ram usage:       21 bytes
  4106 ;; Hardware stack levels used: 1
  4107 ;; Hardware stack levels required when called: 3
  4108 ;; This function calls:
  4109 ;;		_I2C_Master_Read
  4110 ;;		_I2C_Master_RepeatedStart
  4111 ;;		_I2C_Master_Start
  4112 ;;		_I2C_Master_Stop
  4113 ;;		_I2C_Master_Write
  4114 ;;		_Lcd_Set_Cursor
  4115 ;;		_Lcd_Write_String
  4116 ;;		___fladd
  4117 ;;		___fldiv
  4118 ;;		___flmul
  4119 ;;		___xxtofl
  4120 ;;		_floattostr
  4121 ;; This function is called by:
  4122 ;;		_main
  4123 ;; This function uses a non-reentrant model
  4124 ;;
  4125                           
  4126     0A0B                     _AHT10_Read:	
  4127                           ;psect for function _AHT10_Read
  4128                           
  4129     0A0B                     l3393:	
  4130                           ;incstack = 0
  4131                           ; Regs used in _AHT10_Read: [wreg-fsr0h+status,2+status,0+btemp+1+pclath+cstack]
  4132                           
  4133                           
  4134                           ;Dig2ProMaster.c: 248:     uint8_t data[7];;Dig2ProMaster.c: 249:     uint8_t r;;Dig2Pro
      +                          Master.c: 250:     I2C_Master_Start();
  4135     0A0B  160A  118A  2171  120A  158A  	fcall	_I2C_Master_Start
  4136                           
  4137                           ;Dig2ProMaster.c: 251:     I2C_Master_Write(0x70);
  4138     0A10  3070               	movlw	112
  4139     0A11  00F0               	movwf	I2C_Master_Write@d
  4140     0A12  3000               	movlw	0
  4141     0A13  00F1               	movwf	I2C_Master_Write@d+1
  4142     0A14  160A  118A  2183  120A  158A  	fcall	_I2C_Master_Write
  4143                           
  4144                           ;Dig2ProMaster.c: 252:     I2C_Master_Write(0xAC);
  4145     0A19  30AC               	movlw	172
  4146     0A1A  00F0               	movwf	I2C_Master_Write@d
  4147     0A1B  3000               	movlw	0
  4148     0A1C  00F1               	movwf	I2C_Master_Write@d+1
  4149     0A1D  160A  118A  2183  120A  158A  	fcall	_I2C_Master_Write
  4150                           
  4151                           ;Dig2ProMaster.c: 253:     I2C_Master_Write(0x33);
  4152     0A22  3033               	movlw	51
  4153     0A23  00F0               	movwf	I2C_Master_Write@d
  4154     0A24  3000               	movlw	0
  4155     0A25  00F1               	movwf	I2C_Master_Write@d+1
  4156     0A26  160A  118A  2183  120A  158A  	fcall	_I2C_Master_Write
  4157                           
  4158                           ;Dig2ProMaster.c: 254:     I2C_Master_Write(0x00);
  4159     0A2B  3000               	movlw	0
  4160     0A2C  00F0               	movwf	I2C_Master_Write@d
  4161     0A2D  00F1               	movwf	I2C_Master_Write@d+1
  4162     0A2E  160A  118A  2183  120A  158A  	fcall	_I2C_Master_Write
  4163                           
  4164                           ;Dig2ProMaster.c: 255:     I2C_Master_Stop();
  4165     0A33  160A  118A  217A  120A  158A  	fcall	_I2C_Master_Stop
  4166     0A38                     l3395:
  4167                           
  4168                           ;Dig2ProMaster.c: 256:     _delay((unsigned long)((80)*(8000000/4000.0)));
  4169     0A38  30D0               	movlw	208
  4170     0A39  1683               	bsf	3,5	;RP0=1, select bank1
  4171     0A3A  1303               	bcf	3,6	;RP1=0, select bank1
  4172     0A3B  00D8               	movwf	(??_AHT10_Read^(0+128)+1)
  4173     0A3C  30C9               	movlw	201
  4174     0A3D  00D7               	movwf	??_AHT10_Read^(0+128)
  4175     0A3E                     u4267:
  4176     0A3E  0BD7               	decfsz	??_AHT10_Read^(0+128),f
  4177     0A3F  2A3E               	goto	u4267
  4178     0A40  0BD8               	decfsz	(??_AHT10_Read^(0+128)+1),f
  4179     0A41  2A3E               	goto	u4267
  4180     0A42                     l3397:
  4181                           
  4182                           ;Dig2ProMaster.c: 258:     I2C_Master_Start();
  4183     0A42  160A  118A  2171  120A  158A  	fcall	_I2C_Master_Start
  4184     0A47                     l3399:
  4185                           
  4186                           ;Dig2ProMaster.c: 259:     I2C_Master_Write(0x70);
  4187     0A47  3070               	movlw	112
  4188     0A48  00F0               	movwf	I2C_Master_Write@d
  4189     0A49  3000               	movlw	0
  4190     0A4A  00F1               	movwf	I2C_Master_Write@d+1
  4191     0A4B  160A  118A  2183  120A  158A  	fcall	_I2C_Master_Write
  4192     0A50                     l3401:
  4193                           
  4194                           ;Dig2ProMaster.c: 260:     I2C_Master_Write(0x71);
  4195     0A50  3071               	movlw	113
  4196     0A51  00F0               	movwf	I2C_Master_Write@d
  4197     0A52  3000               	movlw	0
  4198     0A53  00F1               	movwf	I2C_Master_Write@d+1
  4199     0A54  160A  118A  2183  120A  158A  	fcall	_I2C_Master_Write
  4200     0A59                     l3403:
  4201                           
  4202                           ;Dig2ProMaster.c: 261:     I2C_Master_RepeatedStart();
  4203     0A59  160A  118A  2168  120A  158A  	fcall	_I2C_Master_RepeatedStart
  4204     0A5E                     l3405:
  4205                           
  4206                           ;Dig2ProMaster.c: 262:     I2C_Master_Write(0x71);
  4207     0A5E  3071               	movlw	113
  4208     0A5F  00F0               	movwf	I2C_Master_Write@d
  4209     0A60  3000               	movlw	0
  4210     0A61  00F1               	movwf	I2C_Master_Write@d+1
  4211     0A62  160A  118A  2183  120A  158A  	fcall	_I2C_Master_Write
  4212     0A67                     l3407:
  4213     0A67  3000               	movlw	0
  4214     0A68  00F0               	movwf	I2C_Master_Read@a
  4215     0A69  00F1               	movwf	I2C_Master_Read@a+1
  4216     0A6A  160A  118A  2282  120A  158A  	fcall	_I2C_Master_Read
  4217     0A6F                     l3409:
  4218                           
  4219                           ;Dig2ProMaster.c: 264:     I2C_Master_Stop();
  4220     0A6F  160A  118A  217A  120A  158A  	fcall	_I2C_Master_Stop
  4221     0A74                     l3411:
  4222     0A74                     l3413:	
  4223                           ;Dig2ProMaster.c: 267:     while (r != 0b00000000);
  4224                           
  4225     0A74                     l3415:
  4226                           
  4227                           ;Dig2ProMaster.c: 269:     I2C_Master_Start();
  4228     0A74  160A  118A  2171  120A  158A  	fcall	_I2C_Master_Start
  4229                           
  4230                           ;Dig2ProMaster.c: 270:     I2C_Master_Write(0x71);
  4231     0A79  3071               	movlw	113
  4232     0A7A  00F0               	movwf	I2C_Master_Write@d
  4233     0A7B  3000               	movlw	0
  4234     0A7C  00F1               	movwf	I2C_Master_Write@d+1
  4235     0A7D  160A  118A  2183  120A  158A  	fcall	_I2C_Master_Write
  4236                           
  4237                           ;Dig2ProMaster.c: 271:     data[0] = I2C_Master_Read(1);
  4238     0A82  3001               	movlw	1
  4239     0A83  00F0               	movwf	I2C_Master_Read@a
  4240     0A84  3000               	movlw	0
  4241     0A85  00F1               	movwf	I2C_Master_Read@a+1
  4242     0A86  160A  118A  2282  120A  158A  	fcall	_I2C_Master_Read
  4243     0A8B  0870               	movf	?_I2C_Master_Read,w
  4244     0A8C  1683               	bsf	3,5	;RP0=1, select bank1
  4245     0A8D  1303               	bcf	3,6	;RP1=0, select bank1
  4246     0A8E  00E5               	movwf	AHT10_Read@data^(0+128)
  4247                           
  4248                           ;Dig2ProMaster.c: 272:     data[1] = I2C_Master_Read(1);
  4249     0A8F  3001               	movlw	1
  4250     0A90  00F0               	movwf	I2C_Master_Read@a
  4251     0A91  3000               	movlw	0
  4252     0A92  00F1               	movwf	I2C_Master_Read@a+1
  4253     0A93  160A  118A  2282  120A  158A  	fcall	_I2C_Master_Read
  4254     0A98  0870               	movf	?_I2C_Master_Read,w
  4255     0A99  1683               	bsf	3,5	;RP0=1, select bank1
  4256     0A9A  1303               	bcf	3,6	;RP1=0, select bank1
  4257     0A9B  00E6               	movwf	(AHT10_Read@data^(0+128)+1)
  4258                           
  4259                           ;Dig2ProMaster.c: 273:     data[2] = I2C_Master_Read(1);
  4260     0A9C  3001               	movlw	1
  4261     0A9D  00F0               	movwf	I2C_Master_Read@a
  4262     0A9E  3000               	movlw	0
  4263     0A9F  00F1               	movwf	I2C_Master_Read@a+1
  4264     0AA0  160A  118A  2282  120A  158A  	fcall	_I2C_Master_Read
  4265     0AA5  0870               	movf	?_I2C_Master_Read,w
  4266     0AA6  1683               	bsf	3,5	;RP0=1, select bank1
  4267     0AA7  1303               	bcf	3,6	;RP1=0, select bank1
  4268     0AA8  00E7               	movwf	(AHT10_Read@data^(0+128)+2)
  4269                           
  4270                           ;Dig2ProMaster.c: 274:     data[3] = I2C_Master_Read(1);
  4271     0AA9  3001               	movlw	1
  4272     0AAA  00F0               	movwf	I2C_Master_Read@a
  4273     0AAB  3000               	movlw	0
  4274     0AAC  00F1               	movwf	I2C_Master_Read@a+1
  4275     0AAD  160A  118A  2282  120A  158A  	fcall	_I2C_Master_Read
  4276     0AB2  0870               	movf	?_I2C_Master_Read,w
  4277     0AB3  1683               	bsf	3,5	;RP0=1, select bank1
  4278     0AB4  1303               	bcf	3,6	;RP1=0, select bank1
  4279     0AB5  00E8               	movwf	(AHT10_Read@data^(0+128)+3)
  4280                           
  4281                           ;Dig2ProMaster.c: 275:     data[4] = I2C_Master_Read(1);
  4282     0AB6  3001               	movlw	1
  4283     0AB7  00F0               	movwf	I2C_Master_Read@a
  4284     0AB8  3000               	movlw	0
  4285     0AB9  00F1               	movwf	I2C_Master_Read@a+1
  4286     0ABA  160A  118A  2282  120A  158A  	fcall	_I2C_Master_Read
  4287     0ABF  0870               	movf	?_I2C_Master_Read,w
  4288     0AC0  1683               	bsf	3,5	;RP0=1, select bank1
  4289     0AC1  1303               	bcf	3,6	;RP1=0, select bank1
  4290     0AC2  00E9               	movwf	(AHT10_Read@data^(0+128)+4)
  4291                           
  4292                           ;Dig2ProMaster.c: 276:     data[5] = I2C_Master_Read(1);
  4293     0AC3  3001               	movlw	1
  4294     0AC4  00F0               	movwf	I2C_Master_Read@a
  4295     0AC5  3000               	movlw	0
  4296     0AC6  00F1               	movwf	I2C_Master_Read@a+1
  4297     0AC7  160A  118A  2282  120A  158A  	fcall	_I2C_Master_Read
  4298     0ACC  0870               	movf	?_I2C_Master_Read,w
  4299     0ACD  1683               	bsf	3,5	;RP0=1, select bank1
  4300     0ACE  1303               	bcf	3,6	;RP1=0, select bank1
  4301     0ACF  00EA               	movwf	(AHT10_Read@data^(0+128)+5)
  4302                           
  4303                           ;Dig2ProMaster.c: 277:     data[6] = I2C_Master_Read(0);
  4304     0AD0  3000               	movlw	0
  4305     0AD1  00F0               	movwf	I2C_Master_Read@a
  4306     0AD2  00F1               	movwf	I2C_Master_Read@a+1
  4307     0AD3  160A  118A  2282  120A  158A  	fcall	_I2C_Master_Read
  4308     0AD8  0870               	movf	?_I2C_Master_Read,w
  4309     0AD9  1683               	bsf	3,5	;RP0=1, select bank1
  4310     0ADA  1303               	bcf	3,6	;RP1=0, select bank1
  4311     0ADB  00EB               	movwf	(AHT10_Read@data^(0+128)+6)
  4312                           
  4313                           ;Dig2ProMaster.c: 278:     I2C_Master_Stop();
  4314     0ADC  160A  118A  217A  120A  158A  	fcall	_I2C_Master_Stop
  4315     0AE1                     l3417:
  4316                           
  4317                           ;Dig2ProMaster.c: 280:  temperature = (((uint32_t)data[3] & 0x0F) << 16) + ((uint16_t)da
      +                          ta[4] << 8) + data[5];
  4318     0AE1  1683               	bsf	3,5	;RP0=1, select bank1
  4319     0AE2  1303               	bcf	3,6	;RP1=0, select bank1
  4320     0AE3  086A               	movf	(AHT10_Read@data^(0+128)+5),w
  4321     0AE4  00D7               	movwf	??_AHT10_Read^(0+128)
  4322     0AE5  01D8               	clrf	(??_AHT10_Read^(0+128)+1)
  4323     0AE6  01D9               	clrf	(??_AHT10_Read^(0+128)+2)
  4324     0AE7  01DA               	clrf	(??_AHT10_Read^(0+128)+3)
  4325     0AE8  0869               	movf	(AHT10_Read@data^(0+128)+4),w
  4326     0AE9  00DB               	movwf	(??_AHT10_Read+4)^(0+128)
  4327     0AEA  01DC               	clrf	((??_AHT10_Read+4)^(0+128)+1)
  4328     0AEB  085B               	movf	(??_AHT10_Read+4)^(0+128),w
  4329     0AEC  00DC               	movwf	((??_AHT10_Read+4)^(0+128)+1)
  4330     0AED  01DB               	clrf	(??_AHT10_Read+4)^(0+128)
  4331     0AEE  085B               	movf	(??_AHT10_Read+4)^(0+128),w
  4332     0AEF  00DD               	movwf	(??_AHT10_Read+6)^(0+128)
  4333     0AF0  085C               	movf	(??_AHT10_Read+5)^(0+128),w
  4334     0AF1  00DE               	movwf	((??_AHT10_Read+6)^(0+128)+1)
  4335     0AF2  01DF               	clrf	((??_AHT10_Read+6)^(0+128)+2)
  4336     0AF3  01E0               	clrf	((??_AHT10_Read+6)^(0+128)+3)
  4337     0AF4  0868               	movf	(AHT10_Read@data^(0+128)+3),w
  4338     0AF5  390F               	andlw	15
  4339     0AF6  00E1               	movwf	(??_AHT10_Read+10)^(0+128)
  4340     0AF7  01E2               	clrf	((??_AHT10_Read+10)^(0+128)+1)
  4341     0AF8  01E3               	clrf	((??_AHT10_Read+10)^(0+128)+2)
  4342     0AF9  01E4               	clrf	((??_AHT10_Read+10)^(0+128)+3)
  4343     0AFA  3010               	movlw	16
  4344     0AFB                     u4135:
  4345     0AFB  1003               	clrc
  4346     0AFC  0DE1               	rlf	(??_AHT10_Read+10)^(0+128),f
  4347     0AFD  0DE2               	rlf	((??_AHT10_Read+10)^(0+128)+1),f
  4348     0AFE  0DE3               	rlf	((??_AHT10_Read+10)^(0+128)+2),f
  4349     0AFF  0DE4               	rlf	((??_AHT10_Read+10)^(0+128)+3),f
  4350     0B00                     u4130:
  4351     0B00  3EFF               	addlw	-1
  4352     0B01  1D03               	skipz
  4353     0B02  2AFB               	goto	u4135
  4354     0B03  0861               	movf	(??_AHT10_Read+10)^(0+128),w
  4355     0B04  07DD               	addwf	(??_AHT10_Read+6)^(0+128),f
  4356     0B05  0862               	movf	(??_AHT10_Read+11)^(0+128),w
  4357     0B06  1803               	skipnc
  4358     0B07  0F62               	incfsz	(??_AHT10_Read+11)^(0+128),w
  4359     0B08  2B0A               	goto	u4140
  4360     0B09  2B0B               	goto	u4141
  4361     0B0A                     u4140:
  4362     0B0A  07DE               	addwf	((??_AHT10_Read+6)^(0+128)+1),f
  4363     0B0B                     u4141:
  4364     0B0B  0863               	movf	(??_AHT10_Read+12)^(0+128),w
  4365     0B0C  1803               	skipnc
  4366     0B0D  0F63               	incfsz	(??_AHT10_Read+12)^(0+128),w
  4367     0B0E  2B10               	goto	u4142
  4368     0B0F  2B11               	goto	u4143
  4369     0B10                     u4142:
  4370     0B10  07DF               	addwf	((??_AHT10_Read+6)^(0+128)+2),f
  4371     0B11                     u4143:
  4372     0B11  0864               	movf	(??_AHT10_Read+13)^(0+128),w
  4373     0B12  1803               	skipnc
  4374     0B13  0A64               	incf	(??_AHT10_Read+13)^(0+128),w
  4375     0B14  07E0               	addwf	((??_AHT10_Read+6)^(0+128)+3),f
  4376     0B15  085D               	movf	(??_AHT10_Read+6)^(0+128),w
  4377     0B16  07D7               	addwf	??_AHT10_Read^(0+128),f
  4378     0B17  085E               	movf	(??_AHT10_Read+7)^(0+128),w
  4379     0B18  1803               	skipnc
  4380     0B19  0F5E               	incfsz	(??_AHT10_Read+7)^(0+128),w
  4381     0B1A  2B1C               	goto	u4150
  4382     0B1B  2B1D               	goto	u4151
  4383     0B1C                     u4150:
  4384     0B1C  07D8               	addwf	(??_AHT10_Read^(0+128)+1),f
  4385     0B1D                     u4151:
  4386     0B1D  085F               	movf	(??_AHT10_Read+8)^(0+128),w
  4387     0B1E  1803               	skipnc
  4388     0B1F  0F5F               	incfsz	(??_AHT10_Read+8)^(0+128),w
  4389     0B20  2B22               	goto	u4152
  4390     0B21  2B23               	goto	u4153
  4391     0B22                     u4152:
  4392     0B22  07D9               	addwf	(??_AHT10_Read^(0+128)+2),f
  4393     0B23                     u4153:
  4394     0B23  0860               	movf	(??_AHT10_Read+9)^(0+128),w
  4395     0B24  1803               	skipnc
  4396     0B25  0A60               	incf	(??_AHT10_Read+9)^(0+128),w
  4397     0B26  07DA               	addwf	(??_AHT10_Read^(0+128)+3),f
  4398     0B27  085A               	movf	(??_AHT10_Read+3)^(0+128),w
  4399     0B28  00F3               	movwf	___xxtofl@val+3
  4400     0B29  0859               	movf	(??_AHT10_Read+2)^(0+128),w
  4401     0B2A  00F2               	movwf	___xxtofl@val+2
  4402     0B2B  0858               	movf	(??_AHT10_Read+1)^(0+128),w
  4403     0B2C  00F1               	movwf	___xxtofl@val+1
  4404     0B2D  0857               	movf	??_AHT10_Read^(0+128),w
  4405     0B2E  00F0               	movwf	___xxtofl@val
  4406     0B2F  3000               	movlw	0
  4407     0B30  160A  118A  2748  120A  158A  	fcall	___xxtofl
  4408     0B35  0873               	movf	?___xxtofl+3,w
  4409     0B36  1683               	bsf	3,5	;RP0=1, select bank1
  4410     0B37  1303               	bcf	3,6	;RP1=0, select bank1
  4411     0B38  00A3               	movwf	(_temperature+3)^(0+128)
  4412     0B39  0872               	movf	?___xxtofl+2,w
  4413     0B3A  00A2               	movwf	(_temperature+2)^(0+128)
  4414     0B3B  0871               	movf	?___xxtofl+1,w
  4415     0B3C  00A1               	movwf	(_temperature+1)^(0+128)
  4416     0B3D  0870               	movf	?___xxtofl,w
  4417     0B3E  00A0               	movwf	_temperature^(0+128)
  4418     0B3F                     l3419:
  4419                           
  4420                           ;Dig2ProMaster.c: 281:     temperature = ((temperature/1048576)*200-50);
  4421     0B3F  30C2               	movlw	194
  4422     0B40  1283               	bcf	3,5	;RP0=0, select bank0
  4423     0B41  1303               	bcf	3,6	;RP1=0, select bank0
  4424     0B42  00CA               	movwf	___fladd@b+3
  4425     0B43  3048               	movlw	72
  4426     0B44  00C9               	movwf	___fladd@b+2
  4427     0B45  3000               	movlw	0
  4428     0B46  00C8               	movwf	___fladd@b+1
  4429     0B47  3000               	movlw	0
  4430     0B48  00C7               	movwf	___fladd@b
  4431     0B49  3043               	movlw	67
  4432     0B4A  00B0               	movwf	___flmul@b+3
  4433     0B4B  3048               	movlw	72
  4434     0B4C  00AF               	movwf	___flmul@b+2
  4435     0B4D  3000               	movlw	0
  4436     0B4E  00AE               	movwf	___flmul@b+1
  4437     0B4F  3000               	movlw	0
  4438     0B50  00AD               	movwf	___flmul@b
  4439     0B51  3049               	movlw	73
  4440     0B52  00F3               	movwf	___fldiv@a+3
  4441     0B53  3080               	movlw	128
  4442     0B54  00F2               	movwf	___fldiv@a+2
  4443     0B55  3000               	movlw	0
  4444     0B56  00F1               	movwf	___fldiv@a+1
  4445     0B57  3000               	movlw	0
  4446     0B58  00F0               	movwf	___fldiv@a
  4447     0B59  1683               	bsf	3,5	;RP0=1, select bank1
  4448     0B5A  1303               	bcf	3,6	;RP1=0, select bank1
  4449     0B5B  0823               	movf	(_temperature+3)^(0+128),w
  4450     0B5C  00F7               	movwf	___fldiv@b+3
  4451     0B5D  0822               	movf	(_temperature+2)^(0+128),w
  4452     0B5E  00F6               	movwf	___fldiv@b+2
  4453     0B5F  0821               	movf	(_temperature+1)^(0+128),w
  4454     0B60  00F5               	movwf	___fldiv@b+1
  4455     0B61  0820               	movf	_temperature^(0+128),w
  4456     0B62  00F4               	movwf	___fldiv@b
  4457     0B63  120A  158A  23CF  120A  158A  	fcall	___fldiv
  4458     0B68  0873               	movf	?___fldiv+3,w
  4459     0B69  1283               	bcf	3,5	;RP0=0, select bank0
  4460     0B6A  1303               	bcf	3,6	;RP1=0, select bank0
  4461     0B6B  00B4               	movwf	___flmul@a+3
  4462     0B6C  0872               	movf	?___fldiv+2,w
  4463     0B6D  00B3               	movwf	___flmul@a+2
  4464     0B6E  0871               	movf	?___fldiv+1,w
  4465     0B6F  00B2               	movwf	___flmul@a+1
  4466     0B70  0870               	movf	?___fldiv,w
  4467     0B71  00B1               	movwf	___flmul@a
  4468     0B72  120A  118A  2495  120A  158A  	fcall	___flmul
  4469     0B77  1283               	bcf	3,5	;RP0=0, select bank0
  4470     0B78  1303               	bcf	3,6	;RP1=0, select bank0
  4471     0B79  0830               	movf	?___flmul+3,w
  4472     0B7A  00CE               	movwf	___fladd@a+3
  4473     0B7B  082F               	movf	?___flmul+2,w
  4474     0B7C  00CD               	movwf	___fladd@a+2
  4475     0B7D  082E               	movf	?___flmul+1,w
  4476     0B7E  00CC               	movwf	___fladd@a+1
  4477     0B7F  082D               	movf	?___flmul,w
  4478     0B80  00CB               	movwf	___fladd@a
  4479     0B81  120A  158A  25A8  120A  158A  	fcall	___fladd
  4480     0B86  1283               	bcf	3,5	;RP0=0, select bank0
  4481     0B87  1303               	bcf	3,6	;RP1=0, select bank0
  4482     0B88  084A               	movf	?___fladd+3,w
  4483     0B89  1683               	bsf	3,5	;RP0=1, select bank1
  4484     0B8A  1303               	bcf	3,6	;RP1=0, select bank1
  4485     0B8B  00A3               	movwf	(_temperature+3)^(0+128)
  4486     0B8C  1283               	bcf	3,5	;RP0=0, select bank0
  4487     0B8D  1303               	bcf	3,6	;RP1=0, select bank0
  4488     0B8E  0849               	movf	?___fladd+2,w
  4489     0B8F  1683               	bsf	3,5	;RP0=1, select bank1
  4490     0B90  1303               	bcf	3,6	;RP1=0, select bank1
  4491     0B91  00A2               	movwf	(_temperature+2)^(0+128)
  4492     0B92  1283               	bcf	3,5	;RP0=0, select bank0
  4493     0B93  1303               	bcf	3,6	;RP1=0, select bank0
  4494     0B94  0848               	movf	?___fladd+1,w
  4495     0B95  1683               	bsf	3,5	;RP0=1, select bank1
  4496     0B96  1303               	bcf	3,6	;RP1=0, select bank1
  4497     0B97  00A1               	movwf	(_temperature+1)^(0+128)
  4498     0B98  1283               	bcf	3,5	;RP0=0, select bank0
  4499     0B99  1303               	bcf	3,6	;RP1=0, select bank0
  4500     0B9A  0847               	movf	?___fladd,w
  4501     0B9B  1683               	bsf	3,5	;RP0=1, select bank1
  4502     0B9C  1303               	bcf	3,6	;RP1=0, select bank1
  4503     0B9D  00A0               	movwf	_temperature^(0+128)
  4504     0B9E                     l3421:
  4505                           
  4506                           ;Dig2ProMaster.c: 283:     floattostr(temperature, buffer, 2);
  4507     0B9E  0823               	movf	(_temperature+3)^(0+128),w
  4508     0B9F  1283               	bcf	3,5	;RP0=0, select bank0
  4509     0BA0  1303               	bcf	3,6	;RP1=0, select bank0
  4510     0BA1  00E6               	movwf	floattostr@numero_+3
  4511     0BA2  1683               	bsf	3,5	;RP0=1, select bank1
  4512     0BA3  1303               	bcf	3,6	;RP1=0, select bank1
  4513     0BA4  0822               	movf	(_temperature+2)^(0+128),w
  4514     0BA5  1283               	bcf	3,5	;RP0=0, select bank0
  4515     0BA6  1303               	bcf	3,6	;RP1=0, select bank0
  4516     0BA7  00E5               	movwf	floattostr@numero_+2
  4517     0BA8  1683               	bsf	3,5	;RP0=1, select bank1
  4518     0BA9  1303               	bcf	3,6	;RP1=0, select bank1
  4519     0BAA  0821               	movf	(_temperature+1)^(0+128),w
  4520     0BAB  1283               	bcf	3,5	;RP0=0, select bank0
  4521     0BAC  1303               	bcf	3,6	;RP1=0, select bank0
  4522     0BAD  00E4               	movwf	floattostr@numero_+1
  4523     0BAE  1683               	bsf	3,5	;RP0=1, select bank1
  4524     0BAF  1303               	bcf	3,6	;RP1=0, select bank1
  4525     0BB0  0820               	movf	_temperature^(0+128),w
  4526     0BB1  1283               	bcf	3,5	;RP0=0, select bank0
  4527     0BB2  1303               	bcf	3,6	;RP1=0, select bank0
  4528     0BB3  00E3               	movwf	floattostr@numero_
  4529     0BB4  30C2               	movlw	(low (_buffer| 0))& (0+255)
  4530     0BB5  00E7               	movwf	floattostr@cadena_
  4531     0BB6  3002               	movlw	2
  4532     0BB7  00E8               	movwf	floattostr@decimales_
  4533     0BB8  120A  118A  21BD  120A  158A  	fcall	_floattostr
  4534     0BBD                     l3423:
  4535                           
  4536                           ;Dig2ProMaster.c: 284:     Lcd_Set_Cursor(1,12);
  4537     0BBD  300C               	movlw	12
  4538     0BBE  00F4               	movwf	Lcd_Set_Cursor@b
  4539     0BBF  3001               	movlw	1
  4540     0BC0  160A  118A  21EC  120A  158A  	fcall	_Lcd_Set_Cursor
  4541                           
  4542                           ;Dig2ProMaster.c: 285:     Lcd_Write_String(buffer);
  4543     0BC5  30C2               	movlw	(low (_buffer| 0))& (0+255)
  4544     0BC6  00F3               	movwf	Lcd_Write_String@a
  4545     0BC7  3000               	movlw	0
  4546     0BC8  00F4               	movwf	Lcd_Write_String@a+1
  4547     0BC9  160A  118A  2475  120A  158A  	fcall	_Lcd_Write_String
  4548     0BCE                     l310:
  4549     0BCE  0008               	return
  4550     0BCF                     __end_of_AHT10_Read:
  4551                           
  4552                           	psect	text20
  4553     01BD                     __ptext20:	
  4554 ;; *************** function _floattostr *****************
  4555 ;; Defined at:
  4556 ;;		line 10 in file "./floatstr.h"
  4557 ;; Parameters:    Size  Location     Type
  4558 ;;  numero_         4   67[BANK0 ] float 
  4559 ;;  cadena_         1   71[BANK0 ] PTR unsigned char 
  4560 ;;		 -> buffer(5), 
  4561 ;;  decimales_      1   72[BANK0 ] unsigned char 
  4562 ;; Auto vars:     Size  Location     Type
  4563 ;;  tempo_float     4    2[BANK1 ] unsigned char 
  4564 ;;  largo_entera    2   10[BANK1 ] int 
  4565 ;;  cont_for        2    8[BANK1 ] int 
  4566 ;;  largo_n         2    6[BANK1 ] int 
  4567 ;;  tempo_int       2    0[BANK1 ] int 
  4568 ;; Return value:  Size  Location     Type
  4569 ;;                  1    wreg      void 
  4570 ;; Registers used:
  4571 ;;		wreg, fsr0l, fsr0h, status,2, status,0, btemp+1, pclath, cstack
  4572 ;; Tracked objects:
  4573 ;;		On entry : 0/0
  4574 ;;		On exit  : 0/0
  4575 ;;		Unchanged: 0/0
  4576 ;; Data sizes:     COMMON   BANK0   BANK1   BANK3   BANK2
  4577 ;;      Params:         0       6       0       0       0
  4578 ;;      Locals:         0       0      12       0       0
  4579 ;;      Temps:          0       1       0       0       0
  4580 ;;      Totals:         0       7      12       0       0
  4581 ;;Total ram usage:       19 bytes
  4582 ;; Hardware stack levels used: 1
  4583 ;; Hardware stack levels required when called: 2
  4584 ;; This function calls:
  4585 ;;		___fladd
  4586 ;;		___fldiv
  4587 ;;		___flge
  4588 ;;		___flmul
  4589 ;;		___flneg
  4590 ;;		___flsub
  4591 ;;		___fltol
  4592 ;;		___xxtofl
  4593 ;; This function is called by:
  4594 ;;		_AHT10_Read
  4595 ;; This function uses a non-reentrant model
  4596 ;;
  4597                           
  4598     01BD                     _floattostr:	
  4599                           ;psect for function _floattostr
  4600                           
  4601     01BD                     l3083:	
  4602                           ;incstack = 0
  4603                           ; Regs used in _floattostr: [wreg-fsr0h+status,2+status,0+btemp+1+pclath+cstack]
  4604                           
  4605                           
  4606                           ;./floatstr.h: 10: void floattostr(float numero_, unsigned char *cadena_,char decimales_
      +                          );./floatstr.h: 11: {;./floatstr.h: 12:     int largo_entera,largo_n,cont_for,tempo_int;
      +                          ;./floatstr.h: 13:     double tempo_float;;./floatstr.h: 14:     largo_n = decimales_+1;
  4607     01BD  1283               	bcf	3,5	;RP0=0, select bank0
  4608     01BE  1303               	bcf	3,6	;RP1=0, select bank0
  4609     01BF  0868               	movf	floattostr@decimales_,w
  4610     01C0  3E01               	addlw	1
  4611     01C1  1683               	bsf	3,5	;RP0=1, select bank1
  4612     01C2  1303               	bcf	3,6	;RP1=0, select bank1
  4613     01C3  00D1               	movwf	floattostr@largo_n^(0+128)
  4614     01C4  3000               	movlw	0
  4615     01C5  1803               	skipnc
  4616     01C6  3001               	movlw	1
  4617     01C7  00D2               	movwf	(floattostr@largo_n^(0+128)+1)
  4618     01C8                     l3085:
  4619                           
  4620                           ;./floatstr.h: 15:     largo_entera = 0;
  4621     01C8  01D5               	clrf	floattostr@largo_entera^(0+128)
  4622     01C9  01D6               	clrf	(floattostr@largo_entera+1)^(0+128)
  4623     01CA                     l3087:
  4624                           
  4625                           ;./floatstr.h: 17:     if(numero_ < 0)
  4626     01CA  1283               	bcf	3,5	;RP0=0, select bank0
  4627     01CB  1303               	bcf	3,6	;RP1=0, select bank0
  4628     01CC  0866               	movf	floattostr@numero_+3,w
  4629     01CD  00F3               	movwf	___flge@ff1+3
  4630     01CE  0865               	movf	floattostr@numero_+2,w
  4631     01CF  00F2               	movwf	___flge@ff1+2
  4632     01D0  0864               	movf	floattostr@numero_+1,w
  4633     01D1  00F1               	movwf	___flge@ff1+1
  4634     01D2  0863               	movf	floattostr@numero_,w
  4635     01D3  00F0               	movwf	___flge@ff1
  4636     01D4  3000               	movlw	0
  4637     01D5  00F7               	movwf	___flge@ff2+3
  4638     01D6  3000               	movlw	0
  4639     01D7  00F6               	movwf	___flge@ff2+2
  4640     01D8  3000               	movlw	0
  4641     01D9  00F5               	movwf	___flge@ff2+1
  4642     01DA  3000               	movlw	0
  4643     01DB  00F4               	movwf	___flge@ff2
  4644     01DC  160A  118A  26A6  120A  118A  	fcall	___flge
  4645     01E1  1803               	btfsc	3,0
  4646     01E2  29E4               	goto	u3951
  4647     01E3  29E5               	goto	u3950
  4648     01E4                     u3951:
  4649     01E4  2A07               	goto	l3095
  4650     01E5                     u3950:
  4651     01E5                     l3089:
  4652                           
  4653                           ;./floatstr.h: 18:     {;./floatstr.h: 19:         *cadena_++ = '-';
  4654     01E5  1283               	bcf	3,5	;RP0=0, select bank0
  4655     01E6  1303               	bcf	3,6	;RP1=0, select bank0
  4656     01E7  0867               	movf	floattostr@cadena_,w
  4657     01E8  0084               	movwf	4
  4658     01E9  302D               	movlw	45
  4659     01EA  1383               	bcf	3,7	;select IRP bank0
  4660     01EB  0080               	movwf	0
  4661     01EC                     l3091:
  4662     01EC  3001               	movlw	1
  4663     01ED  00E9               	movwf	??_floattostr
  4664     01EE  0869               	movf	??_floattostr,w
  4665     01EF  07E7               	addwf	floattostr@cadena_,f
  4666     01F0                     l3093:
  4667                           
  4668                           ;./floatstr.h: 20:         numero_ = -numero_;
  4669     01F0  0866               	movf	floattostr@numero_+3,w
  4670     01F1  00F3               	movwf	___flneg@f1+3
  4671     01F2  0865               	movf	floattostr@numero_+2,w
  4672     01F3  00F2               	movwf	___flneg@f1+2
  4673     01F4  0864               	movf	floattostr@numero_+1,w
  4674     01F5  00F1               	movwf	___flneg@f1+1
  4675     01F6  0863               	movf	floattostr@numero_,w
  4676     01F7  00F0               	movwf	___flneg@f1
  4677     01F8  120A  158A  2000  120A  118A  	fcall	___flneg
  4678     01FD  0873               	movf	?___flneg+3,w
  4679     01FE  1283               	bcf	3,5	;RP0=0, select bank0
  4680     01FF  1303               	bcf	3,6	;RP1=0, select bank0
  4681     0200  00E6               	movwf	floattostr@numero_+3
  4682     0201  0872               	movf	?___flneg+2,w
  4683     0202  00E5               	movwf	floattostr@numero_+2
  4684     0203  0871               	movf	?___flneg+1,w
  4685     0204  00E4               	movwf	floattostr@numero_+1
  4686     0205  0870               	movf	?___flneg,w
  4687     0206  00E3               	movwf	floattostr@numero_
  4688     0207                     l3095:
  4689                           
  4690                           ;./floatstr.h: 22:     if(numero_ > 0.0) while (numero_ < 1.0)
  4691     0207  3000               	movlw	0
  4692     0208  00F3               	movwf	___flge@ff1+3
  4693     0209  3000               	movlw	0
  4694     020A  00F2               	movwf	___flge@ff1+2
  4695     020B  3000               	movlw	0
  4696     020C  00F1               	movwf	___flge@ff1+1
  4697     020D  3000               	movlw	0
  4698     020E  00F0               	movwf	___flge@ff1
  4699     020F  1283               	bcf	3,5	;RP0=0, select bank0
  4700     0210  1303               	bcf	3,6	;RP1=0, select bank0
  4701     0211  0866               	movf	floattostr@numero_+3,w
  4702     0212  00F7               	movwf	___flge@ff2+3
  4703     0213  0865               	movf	floattostr@numero_+2,w
  4704     0214  00F6               	movwf	___flge@ff2+2
  4705     0215  0864               	movf	floattostr@numero_+1,w
  4706     0216  00F5               	movwf	___flge@ff2+1
  4707     0217  0863               	movf	floattostr@numero_,w
  4708     0218  00F4               	movwf	___flge@ff2
  4709     0219  160A  118A  26A6  120A  118A  	fcall	___flge
  4710     021E  1803               	btfsc	3,0
  4711     021F  2A21               	goto	u3961
  4712     0220  2A22               	goto	u3960
  4713     0221                     u3961:
  4714     0221  2A91               	goto	l3109
  4715     0222                     u3960:
  4716     0222  2A4C               	goto	l3103
  4717     0223                     l3099:
  4718                           
  4719                           ;./floatstr.h: 23:     {;./floatstr.h: 24:         numero_ =numero_* 10.0;
  4720     0223  3041               	movlw	65
  4721     0224  1283               	bcf	3,5	;RP0=0, select bank0
  4722     0225  1303               	bcf	3,6	;RP1=0, select bank0
  4723     0226  00B0               	movwf	___flmul@b+3
  4724     0227  3020               	movlw	32
  4725     0228  00AF               	movwf	___flmul@b+2
  4726     0229  3000               	movlw	0
  4727     022A  00AE               	movwf	___flmul@b+1
  4728     022B  3000               	movlw	0
  4729     022C  00AD               	movwf	___flmul@b
  4730     022D  0866               	movf	floattostr@numero_+3,w
  4731     022E  00B4               	movwf	___flmul@a+3
  4732     022F  0865               	movf	floattostr@numero_+2,w
  4733     0230  00B3               	movwf	___flmul@a+2
  4734     0231  0864               	movf	floattostr@numero_+1,w
  4735     0232  00B2               	movwf	___flmul@a+1
  4736     0233  0863               	movf	floattostr@numero_,w
  4737     0234  00B1               	movwf	___flmul@a
  4738     0235  120A  118A  2495  120A  118A  	fcall	___flmul
  4739     023A  1283               	bcf	3,5	;RP0=0, select bank0
  4740     023B  1303               	bcf	3,6	;RP1=0, select bank0
  4741     023C  0830               	movf	?___flmul+3,w
  4742     023D  00E6               	movwf	floattostr@numero_+3
  4743     023E  082F               	movf	?___flmul+2,w
  4744     023F  00E5               	movwf	floattostr@numero_+2
  4745     0240  082E               	movf	?___flmul+1,w
  4746     0241  00E4               	movwf	floattostr@numero_+1
  4747     0242  082D               	movf	?___flmul,w
  4748     0243  00E3               	movwf	floattostr@numero_
  4749     0244                     l3101:
  4750                           
  4751                           ;./floatstr.h: 25:         largo_entera--;
  4752     0244  30FF               	movlw	255
  4753     0245  1683               	bsf	3,5	;RP0=1, select bank1
  4754     0246  1303               	bcf	3,6	;RP1=0, select bank1
  4755     0247  07D5               	addwf	floattostr@largo_entera^(0+128),f
  4756     0248  1803               	skipnc
  4757     0249  0AD6               	incf	(floattostr@largo_entera+1)^(0+128),f
  4758     024A  30FF               	movlw	255
  4759     024B  07D6               	addwf	(floattostr@largo_entera+1)^(0+128),f
  4760     024C                     l3103:
  4761                           
  4762                           ;./floatstr.h: 22:     if(numero_ > 0.0) while (numero_ < 1.0)
  4763     024C  1283               	bcf	3,5	;RP0=0, select bank0
  4764     024D  1303               	bcf	3,6	;RP1=0, select bank0
  4765     024E  0866               	movf	floattostr@numero_+3,w
  4766     024F  00F3               	movwf	___flge@ff1+3
  4767     0250  0865               	movf	floattostr@numero_+2,w
  4768     0251  00F2               	movwf	___flge@ff1+2
  4769     0252  0864               	movf	floattostr@numero_+1,w
  4770     0253  00F1               	movwf	___flge@ff1+1
  4771     0254  0863               	movf	floattostr@numero_,w
  4772     0255  00F0               	movwf	___flge@ff1
  4773     0256  303F               	movlw	63
  4774     0257  00F7               	movwf	___flge@ff2+3
  4775     0258  3080               	movlw	128
  4776     0259  00F6               	movwf	___flge@ff2+2
  4777     025A  3000               	movlw	0
  4778     025B  00F5               	movwf	___flge@ff2+1
  4779     025C  3000               	movlw	0
  4780     025D  00F4               	movwf	___flge@ff2
  4781     025E  160A  118A  26A6  120A  118A  	fcall	___flge
  4782     0263  1C03               	btfss	3,0
  4783     0264  2A66               	goto	u3971
  4784     0265  2A67               	goto	u3970
  4785     0266                     u3971:
  4786     0266  2A23               	goto	l3099
  4787     0267                     u3970:
  4788     0267  2A91               	goto	l3109
  4789     0268                     l3105:
  4790                           
  4791                           ;./floatstr.h: 28:     {;./floatstr.h: 29:         numero_ = numero_/10.0;
  4792     0268  3041               	movlw	65
  4793     0269  00F3               	movwf	___fldiv@a+3
  4794     026A  3020               	movlw	32
  4795     026B  00F2               	movwf	___fldiv@a+2
  4796     026C  3000               	movlw	0
  4797     026D  00F1               	movwf	___fldiv@a+1
  4798     026E  3000               	movlw	0
  4799     026F  00F0               	movwf	___fldiv@a
  4800     0270  1283               	bcf	3,5	;RP0=0, select bank0
  4801     0271  1303               	bcf	3,6	;RP1=0, select bank0
  4802     0272  0866               	movf	floattostr@numero_+3,w
  4803     0273  00F7               	movwf	___fldiv@b+3
  4804     0274  0865               	movf	floattostr@numero_+2,w
  4805     0275  00F6               	movwf	___fldiv@b+2
  4806     0276  0864               	movf	floattostr@numero_+1,w
  4807     0277  00F5               	movwf	___fldiv@b+1
  4808     0278  0863               	movf	floattostr@numero_,w
  4809     0279  00F4               	movwf	___fldiv@b
  4810     027A  120A  158A  23CF  120A  118A  	fcall	___fldiv
  4811     027F  0873               	movf	?___fldiv+3,w
  4812     0280  1283               	bcf	3,5	;RP0=0, select bank0
  4813     0281  1303               	bcf	3,6	;RP1=0, select bank0
  4814     0282  00E6               	movwf	floattostr@numero_+3
  4815     0283  0872               	movf	?___fldiv+2,w
  4816     0284  00E5               	movwf	floattostr@numero_+2
  4817     0285  0871               	movf	?___fldiv+1,w
  4818     0286  00E4               	movwf	floattostr@numero_+1
  4819     0287  0870               	movf	?___fldiv,w
  4820     0288  00E3               	movwf	floattostr@numero_
  4821     0289                     l3107:
  4822                           
  4823                           ;./floatstr.h: 30:         largo_entera++;
  4824     0289  3001               	movlw	1
  4825     028A  1683               	bsf	3,5	;RP0=1, select bank1
  4826     028B  1303               	bcf	3,6	;RP1=0, select bank1
  4827     028C  07D5               	addwf	floattostr@largo_entera^(0+128),f
  4828     028D  1803               	skipnc
  4829     028E  0AD6               	incf	(floattostr@largo_entera+1)^(0+128),f
  4830     028F  3000               	movlw	0
  4831     0290  07D6               	addwf	(floattostr@largo_entera+1)^(0+128),f
  4832     0291                     l3109:
  4833                           
  4834                           ;./floatstr.h: 27:     while(numero_ >= 10.0)
  4835     0291  1283               	bcf	3,5	;RP0=0, select bank0
  4836     0292  1303               	bcf	3,6	;RP1=0, select bank0
  4837     0293  0866               	movf	floattostr@numero_+3,w
  4838     0294  00F3               	movwf	___flge@ff1+3
  4839     0295  0865               	movf	floattostr@numero_+2,w
  4840     0296  00F2               	movwf	___flge@ff1+2
  4841     0297  0864               	movf	floattostr@numero_+1,w
  4842     0298  00F1               	movwf	___flge@ff1+1
  4843     0299  0863               	movf	floattostr@numero_,w
  4844     029A  00F0               	movwf	___flge@ff1
  4845     029B  3041               	movlw	65
  4846     029C  00F7               	movwf	___flge@ff2+3
  4847     029D  3020               	movlw	32
  4848     029E  00F6               	movwf	___flge@ff2+2
  4849     029F  3000               	movlw	0
  4850     02A0  00F5               	movwf	___flge@ff2+1
  4851     02A1  3000               	movlw	0
  4852     02A2  00F4               	movwf	___flge@ff2
  4853     02A3  160A  118A  26A6  120A  118A  	fcall	___flge
  4854     02A8  1803               	btfsc	3,0
  4855     02A9  2AAB               	goto	u3981
  4856     02AA  2AAC               	goto	u3980
  4857     02AB                     u3981:
  4858     02AB  2A68               	goto	l3105
  4859     02AC                     u3980:
  4860     02AC                     l3111:
  4861                           
  4862                           ;./floatstr.h: 32:     largo_n = largo_n+largo_entera;
  4863     02AC  1683               	bsf	3,5	;RP0=1, select bank1
  4864     02AD  1303               	bcf	3,6	;RP1=0, select bank1
  4865     02AE  0855               	movf	floattostr@largo_entera^(0+128),w
  4866     02AF  0751               	addwf	floattostr@largo_n^(0+128),w
  4867     02B0  00D1               	movwf	floattostr@largo_n^(0+128)
  4868     02B1  0856               	movf	(floattostr@largo_entera+1)^(0+128),w
  4869     02B2  1803               	skipnc
  4870     02B3  0A56               	incf	(floattostr@largo_entera+1)^(0+128),w
  4871     02B4  0752               	addwf	(floattostr@largo_n+1)^(0+128),w
  4872     02B5  00D2               	movwf	(floattostr@largo_n+1)^(0+128)
  4873     02B6                     l3113:
  4874                           
  4875                           ;./floatstr.h: 34:     for(tempo_float = cont_for = 1; cont_for < largo_n; cont_for++)
  4876     02B6  3001               	movlw	1
  4877     02B7  00D3               	movwf	floattostr@cont_for^(0+128)
  4878     02B8  3000               	movlw	0
  4879     02B9  00D4               	movwf	(floattostr@cont_for^(0+128)+1)
  4880     02BA  0853               	movf	floattostr@cont_for^(0+128),w
  4881     02BB  00F0               	movwf	___xxtofl@val
  4882     02BC  0854               	movf	(floattostr@cont_for+1)^(0+128),w
  4883     02BD  00F1               	movwf	___xxtofl@val+1
  4884     02BE  3000               	movlw	0
  4885     02BF  1BF1               	btfsc	___xxtofl@val+1,7
  4886     02C0  30FF               	movlw	255
  4887     02C1  00F2               	movwf	___xxtofl@val+2
  4888     02C2  00F3               	movwf	___xxtofl@val+3
  4889     02C3  3001               	movlw	1
  4890     02C4  160A  118A  2748  120A  118A  	fcall	___xxtofl
  4891     02C9  0873               	movf	?___xxtofl+3,w
  4892     02CA  1683               	bsf	3,5	;RP0=1, select bank1
  4893     02CB  1303               	bcf	3,6	;RP1=0, select bank1
  4894     02CC  00D0               	movwf	(floattostr@tempo_float+3)^(0+128)
  4895     02CD  0872               	movf	?___xxtofl+2,w
  4896     02CE  00CF               	movwf	(floattostr@tempo_float+2)^(0+128)
  4897     02CF  0871               	movf	?___xxtofl+1,w
  4898     02D0  00CE               	movwf	(floattostr@tempo_float+1)^(0+128)
  4899     02D1  0870               	movf	?___xxtofl,w
  4900     02D2  00CD               	movwf	floattostr@tempo_float^(0+128)
  4901     02D3  2AFB               	goto	l3119
  4902     02D4                     l3115:
  4903                           
  4904                           ;./floatstr.h: 35:         tempo_float = tempo_float/10.0;
  4905     02D4  3041               	movlw	65
  4906     02D5  00F3               	movwf	___fldiv@a+3
  4907     02D6  3020               	movlw	32
  4908     02D7  00F2               	movwf	___fldiv@a+2
  4909     02D8  3000               	movlw	0
  4910     02D9  00F1               	movwf	___fldiv@a+1
  4911     02DA  3000               	movlw	0
  4912     02DB  00F0               	movwf	___fldiv@a
  4913     02DC  1683               	bsf	3,5	;RP0=1, select bank1
  4914     02DD  1303               	bcf	3,6	;RP1=0, select bank1
  4915     02DE  0850               	movf	(floattostr@tempo_float+3)^(0+128),w
  4916     02DF  00F7               	movwf	___fldiv@b+3
  4917     02E0  084F               	movf	(floattostr@tempo_float+2)^(0+128),w
  4918     02E1  00F6               	movwf	___fldiv@b+2
  4919     02E2  084E               	movf	(floattostr@tempo_float+1)^(0+128),w
  4920     02E3  00F5               	movwf	___fldiv@b+1
  4921     02E4  084D               	movf	floattostr@tempo_float^(0+128),w
  4922     02E5  00F4               	movwf	___fldiv@b
  4923     02E6  120A  158A  23CF  120A  118A  	fcall	___fldiv
  4924     02EB  0873               	movf	?___fldiv+3,w
  4925     02EC  1683               	bsf	3,5	;RP0=1, select bank1
  4926     02ED  1303               	bcf	3,6	;RP1=0, select bank1
  4927     02EE  00D0               	movwf	(floattostr@tempo_float+3)^(0+128)
  4928     02EF  0872               	movf	?___fldiv+2,w
  4929     02F0  00CF               	movwf	(floattostr@tempo_float+2)^(0+128)
  4930     02F1  0871               	movf	?___fldiv+1,w
  4931     02F2  00CE               	movwf	(floattostr@tempo_float+1)^(0+128)
  4932     02F3  0870               	movf	?___fldiv,w
  4933     02F4  00CD               	movwf	floattostr@tempo_float^(0+128)
  4934     02F5                     l3117:
  4935     02F5  3001               	movlw	1
  4936     02F6  07D3               	addwf	floattostr@cont_for^(0+128),f
  4937     02F7  1803               	skipnc
  4938     02F8  0AD4               	incf	(floattostr@cont_for+1)^(0+128),f
  4939     02F9  3000               	movlw	0
  4940     02FA  07D4               	addwf	(floattostr@cont_for+1)^(0+128),f
  4941     02FB                     l3119:
  4942     02FB  0854               	movf	(floattostr@cont_for+1)^(0+128),w
  4943     02FC  3A80               	xorlw	128
  4944     02FD  1283               	bcf	3,5	;RP0=0, select bank0
  4945     02FE  1303               	bcf	3,6	;RP1=0, select bank0
  4946     02FF  00E9               	movwf	??_floattostr
  4947     0300  1683               	bsf	3,5	;RP0=1, select bank1
  4948     0301  1303               	bcf	3,6	;RP1=0, select bank1
  4949     0302  0852               	movf	(floattostr@largo_n+1)^(0+128),w
  4950     0303  3A80               	xorlw	128
  4951     0304  1283               	bcf	3,5	;RP0=0, select bank0
  4952     0305  1303               	bcf	3,6	;RP1=0, select bank0
  4953     0306  0269               	subwf	??_floattostr,w
  4954     0307  1D03               	skipz
  4955     0308  2B0D               	goto	u3995
  4956     0309  1683               	bsf	3,5	;RP0=1, select bank1
  4957     030A  1303               	bcf	3,6	;RP1=0, select bank1
  4958     030B  0851               	movf	floattostr@largo_n^(0+128),w
  4959     030C  0253               	subwf	floattostr@cont_for^(0+128),w
  4960     030D                     u3995:
  4961     030D  1C03               	skipc
  4962     030E  2B10               	goto	u3991
  4963     030F  2B11               	goto	u3990
  4964     0310                     u3991:
  4965     0310  2AD4               	goto	l3115
  4966     0311                     u3990:
  4967     0311                     l3121:
  4968                           
  4969                           ;./floatstr.h: 36:     numero_ += tempo_float/2.0;
  4970     0311  1683               	bsf	3,5	;RP0=1, select bank1
  4971     0312  1303               	bcf	3,6	;RP1=0, select bank1
  4972     0313  0850               	movf	(floattostr@tempo_float+3)^(0+128),w
  4973     0314  00F7               	movwf	___fldiv@b+3
  4974     0315  084F               	movf	(floattostr@tempo_float+2)^(0+128),w
  4975     0316  00F6               	movwf	___fldiv@b+2
  4976     0317  084E               	movf	(floattostr@tempo_float+1)^(0+128),w
  4977     0318  00F5               	movwf	___fldiv@b+1
  4978     0319  084D               	movf	floattostr@tempo_float^(0+128),w
  4979     031A  00F4               	movwf	___fldiv@b
  4980     031B  3040               	movlw	64
  4981     031C  00F3               	movwf	___fldiv@a+3
  4982     031D  3000               	movlw	0
  4983     031E  00F2               	movwf	___fldiv@a+2
  4984     031F  3000               	movlw	0
  4985     0320  00F1               	movwf	___fldiv@a+1
  4986     0321  3000               	movlw	0
  4987     0322  00F0               	movwf	___fldiv@a
  4988     0323  120A  158A  23CF  120A  118A  	fcall	___fldiv
  4989     0328  0873               	movf	?___fldiv+3,w
  4990     0329  1283               	bcf	3,5	;RP0=0, select bank0
  4991     032A  1303               	bcf	3,6	;RP1=0, select bank0
  4992     032B  00CA               	movwf	___fladd@b+3
  4993     032C  0872               	movf	?___fldiv+2,w
  4994     032D  00C9               	movwf	___fladd@b+2
  4995     032E  0871               	movf	?___fldiv+1,w
  4996     032F  00C8               	movwf	___fladd@b+1
  4997     0330  0870               	movf	?___fldiv,w
  4998     0331  00C7               	movwf	___fladd@b
  4999     0332  0866               	movf	floattostr@numero_+3,w
  5000     0333  00CE               	movwf	___fladd@a+3
  5001     0334  0865               	movf	floattostr@numero_+2,w
  5002     0335  00CD               	movwf	___fladd@a+2
  5003     0336  0864               	movf	floattostr@numero_+1,w
  5004     0337  00CC               	movwf	___fladd@a+1
  5005     0338  0863               	movf	floattostr@numero_,w
  5006     0339  00CB               	movwf	___fladd@a
  5007     033A  120A  158A  25A8  120A  118A  	fcall	___fladd
  5008     033F  1283               	bcf	3,5	;RP0=0, select bank0
  5009     0340  1303               	bcf	3,6	;RP1=0, select bank0
  5010     0341  084A               	movf	?___fladd+3,w
  5011     0342  00E6               	movwf	floattostr@numero_+3
  5012     0343  0849               	movf	?___fladd+2,w
  5013     0344  00E5               	movwf	floattostr@numero_+2
  5014     0345  0848               	movf	?___fladd+1,w
  5015     0346  00E4               	movwf	floattostr@numero_+1
  5016     0347  0847               	movf	?___fladd,w
  5017     0348  00E3               	movwf	floattostr@numero_
  5018     0349                     l3123:
  5019                           
  5020                           ;./floatstr.h: 37:     if(numero_ >= 10.0)
  5021     0349  0866               	movf	floattostr@numero_+3,w
  5022     034A  00F3               	movwf	___flge@ff1+3
  5023     034B  0865               	movf	floattostr@numero_+2,w
  5024     034C  00F2               	movwf	___flge@ff1+2
  5025     034D  0864               	movf	floattostr@numero_+1,w
  5026     034E  00F1               	movwf	___flge@ff1+1
  5027     034F  0863               	movf	floattostr@numero_,w
  5028     0350  00F0               	movwf	___flge@ff1
  5029     0351  3041               	movlw	65
  5030     0352  00F7               	movwf	___flge@ff2+3
  5031     0353  3020               	movlw	32
  5032     0354  00F6               	movwf	___flge@ff2+2
  5033     0355  3000               	movlw	0
  5034     0356  00F5               	movwf	___flge@ff2+1
  5035     0357  3000               	movlw	0
  5036     0358  00F4               	movwf	___flge@ff2
  5037     0359  160A  118A  26A6  120A  118A  	fcall	___flge
  5038     035E  1C03               	btfss	3,0
  5039     035F  2B61               	goto	u4001
  5040     0360  2B62               	goto	u4000
  5041     0361                     u4001:
  5042     0361  2B74               	goto	l3127
  5043     0362                     u4000:
  5044     0362                     l3125:
  5045                           
  5046                           ;./floatstr.h: 38:     {;./floatstr.h: 39:         numero_ = 1.0; largo_entera++;
  5047     0362  303F               	movlw	63
  5048     0363  1283               	bcf	3,5	;RP0=0, select bank0
  5049     0364  1303               	bcf	3,6	;RP1=0, select bank0
  5050     0365  00E6               	movwf	floattostr@numero_+3
  5051     0366  3080               	movlw	128
  5052     0367  00E5               	movwf	floattostr@numero_+2
  5053     0368  3000               	movlw	0
  5054     0369  00E4               	movwf	floattostr@numero_+1
  5055     036A  3000               	movlw	0
  5056     036B  00E3               	movwf	floattostr@numero_
  5057     036C  3001               	movlw	1
  5058     036D  1683               	bsf	3,5	;RP0=1, select bank1
  5059     036E  1303               	bcf	3,6	;RP1=0, select bank1
  5060     036F  07D5               	addwf	floattostr@largo_entera^(0+128),f
  5061     0370  1803               	skipnc
  5062     0371  0AD6               	incf	(floattostr@largo_entera+1)^(0+128),f
  5063     0372  3000               	movlw	0
  5064     0373  07D6               	addwf	(floattostr@largo_entera+1)^(0+128),f
  5065     0374                     l3127:
  5066                           
  5067                           ;./floatstr.h: 41:     if(largo_entera<0)
  5068     0374  1683               	bsf	3,5	;RP0=1, select bank1
  5069     0375  1303               	bcf	3,6	;RP1=0, select bank1
  5070     0376  1FD6               	btfss	(floattostr@largo_entera+1)^(0+128),7
  5071     0377  2B79               	goto	u4011
  5072     0378  2B7A               	goto	u4010
  5073     0379                     u4011:
  5074     0379  2BC9               	goto	l3149
  5075     037A                     u4010:
  5076     037A                     l3129:
  5077                           
  5078                           ;./floatstr.h: 42:     {;./floatstr.h: 43:         *cadena_++ = '0'; *cadena_++ = '.';
  5079     037A  1283               	bcf	3,5	;RP0=0, select bank0
  5080     037B  1303               	bcf	3,6	;RP1=0, select bank0
  5081     037C  0867               	movf	floattostr@cadena_,w
  5082     037D  0084               	movwf	4
  5083     037E  3030               	movlw	48
  5084     037F  1383               	bcf	3,7	;select IRP bank0
  5085     0380  0080               	movwf	0
  5086     0381                     l3131:
  5087     0381  3001               	movlw	1
  5088     0382  00E9               	movwf	??_floattostr
  5089     0383  0869               	movf	??_floattostr,w
  5090     0384  07E7               	addwf	floattostr@cadena_,f
  5091     0385                     l3133:
  5092     0385  0867               	movf	floattostr@cadena_,w
  5093     0386  0084               	movwf	4
  5094     0387  302E               	movlw	46
  5095     0388  0080               	movwf	0
  5096     0389  3001               	movlw	1
  5097     038A  00E9               	movwf	??_floattostr
  5098     038B  0869               	movf	??_floattostr,w
  5099     038C  07E7               	addwf	floattostr@cadena_,f
  5100     038D                     l3135:
  5101                           
  5102                           ;./floatstr.h: 44:         if(largo_n < 0) largo_entera = largo_entera-largo_n;
  5103     038D  1683               	bsf	3,5	;RP0=1, select bank1
  5104     038E  1303               	bcf	3,6	;RP1=0, select bank1
  5105     038F  1FD2               	btfss	(floattostr@largo_n+1)^(0+128),7
  5106     0390  2B92               	goto	u4021
  5107     0391  2B93               	goto	u4020
  5108     0392                     u4021:
  5109     0392  2B9B               	goto	l3139
  5110     0393                     u4020:
  5111     0393                     l3137:
  5112     0393  0851               	movf	floattostr@largo_n^(0+128),w
  5113     0394  0255               	subwf	floattostr@largo_entera^(0+128),w
  5114     0395  00D5               	movwf	floattostr@largo_entera^(0+128)
  5115     0396  0852               	movf	(floattostr@largo_n+1)^(0+128),w
  5116     0397  1C03               	skipc
  5117     0398  0A52               	incf	(floattostr@largo_n+1)^(0+128),w
  5118     0399  0256               	subwf	(floattostr@largo_entera+1)^(0+128),w
  5119     039A  00D6               	movwf	(floattostr@largo_entera+1)^(0+128)
  5120     039B                     l3139:
  5121                           
  5122                           ;./floatstr.h: 45:         for(cont_for = -1; cont_for > largo_entera; cont_for--) *cade
      +                          na_++ = '0';
  5123     039B  30FF               	movlw	255
  5124     039C  00D3               	movwf	floattostr@cont_for^(0+128)
  5125     039D  30FF               	movlw	255
  5126     039E  00D4               	movwf	(floattostr@cont_for^(0+128)+1)
  5127     039F  2BB3               	goto	l3147
  5128     03A0                     l3141:
  5129     03A0  1283               	bcf	3,5	;RP0=0, select bank0
  5130     03A1  1303               	bcf	3,6	;RP1=0, select bank0
  5131     03A2  0867               	movf	floattostr@cadena_,w
  5132     03A3  0084               	movwf	4
  5133     03A4  3030               	movlw	48
  5134     03A5  1383               	bcf	3,7	;select IRP bank0
  5135     03A6  0080               	movwf	0
  5136     03A7                     l3143:
  5137     03A7  3001               	movlw	1
  5138     03A8  00E9               	movwf	??_floattostr
  5139     03A9  0869               	movf	??_floattostr,w
  5140     03AA  07E7               	addwf	floattostr@cadena_,f
  5141     03AB                     l3145:
  5142     03AB  30FF               	movlw	255
  5143     03AC  1683               	bsf	3,5	;RP0=1, select bank1
  5144     03AD  1303               	bcf	3,6	;RP1=0, select bank1
  5145     03AE  07D3               	addwf	floattostr@cont_for^(0+128),f
  5146     03AF  1803               	skipnc
  5147     03B0  0AD4               	incf	(floattostr@cont_for+1)^(0+128),f
  5148     03B1  30FF               	movlw	255
  5149     03B2  07D4               	addwf	(floattostr@cont_for+1)^(0+128),f
  5150     03B3                     l3147:
  5151     03B3  0856               	movf	(floattostr@largo_entera+1)^(0+128),w
  5152     03B4  3A80               	xorlw	128
  5153     03B5  1283               	bcf	3,5	;RP0=0, select bank0
  5154     03B6  1303               	bcf	3,6	;RP1=0, select bank0
  5155     03B7  00E9               	movwf	??_floattostr
  5156     03B8  1683               	bsf	3,5	;RP0=1, select bank1
  5157     03B9  1303               	bcf	3,6	;RP1=0, select bank1
  5158     03BA  0854               	movf	(floattostr@cont_for+1)^(0+128),w
  5159     03BB  3A80               	xorlw	128
  5160     03BC  1283               	bcf	3,5	;RP0=0, select bank0
  5161     03BD  1303               	bcf	3,6	;RP1=0, select bank0
  5162     03BE  0269               	subwf	??_floattostr,w
  5163     03BF  1D03               	skipz
  5164     03C0  2BC5               	goto	u4035
  5165     03C1  1683               	bsf	3,5	;RP0=1, select bank1
  5166     03C2  1303               	bcf	3,6	;RP1=0, select bank1
  5167     03C3  0853               	movf	floattostr@cont_for^(0+128),w
  5168     03C4  0255               	subwf	floattostr@largo_entera^(0+128),w
  5169     03C5                     u4035:
  5170     03C5  1C03               	skipc
  5171     03C6  2BC8               	goto	u4031
  5172     03C7  2BC9               	goto	u4030
  5173     03C8                     u4031:
  5174     03C8  2BA0               	goto	l3141
  5175     03C9                     u4030:
  5176     03C9                     l3149:
  5177                           
  5178                           ;./floatstr.h: 47:     for(cont_for=0; cont_for < largo_n; cont_for++)
  5179     03C9  1683               	bsf	3,5	;RP0=1, select bank1
  5180     03CA  1303               	bcf	3,6	;RP1=0, select bank1
  5181     03CB  01D3               	clrf	floattostr@cont_for^(0+128)
  5182     03CC  01D4               	clrf	(floattostr@cont_for+1)^(0+128)
  5183     03CD  2C78               	goto	l3169
  5184     03CE                     l3151:
  5185                           
  5186                           ;./floatstr.h: 48:     {;./floatstr.h: 49:         tempo_int = numero_;
  5187     03CE  1283               	bcf	3,5	;RP0=0, select bank0
  5188     03CF  1303               	bcf	3,6	;RP1=0, select bank0
  5189     03D0  0866               	movf	floattostr@numero_+3,w
  5190     03D1  00F3               	movwf	___fltol@f1+3
  5191     03D2  0865               	movf	floattostr@numero_+2,w
  5192     03D3  00F2               	movwf	___fltol@f1+2
  5193     03D4  0864               	movf	floattostr@numero_+1,w
  5194     03D5  00F1               	movwf	___fltol@f1+1
  5195     03D6  0863               	movf	floattostr@numero_,w
  5196     03D7  00F0               	movwf	___fltol@f1
  5197     03D8  160A  118A  2630  120A  118A  	fcall	___fltol
  5198     03DD  0871               	movf	?___fltol+1,w
  5199     03DE  1683               	bsf	3,5	;RP0=1, select bank1
  5200     03DF  1303               	bcf	3,6	;RP1=0, select bank1
  5201     03E0  00CC               	movwf	(floattostr@tempo_int+1)^(0+128)
  5202     03E1  0870               	movf	?___fltol,w
  5203     03E2  00CB               	movwf	floattostr@tempo_int^(0+128)
  5204     03E3                     l3153:
  5205                           
  5206                           ;./floatstr.h: 50:         *cadena_++ = tempo_int + 48;
  5207     03E3  1283               	bcf	3,5	;RP0=0, select bank0
  5208     03E4  1303               	bcf	3,6	;RP1=0, select bank0
  5209     03E5  0867               	movf	floattostr@cadena_,w
  5210     03E6  0084               	movwf	4
  5211     03E7  1683               	bsf	3,5	;RP0=1, select bank1
  5212     03E8  1303               	bcf	3,6	;RP1=0, select bank1
  5213     03E9  084B               	movf	floattostr@tempo_int^(0+128),w
  5214     03EA  3E30               	addlw	48
  5215     03EB  1383               	bcf	3,7	;select IRP bank0
  5216     03EC  0080               	movwf	0
  5217     03ED                     l3155:
  5218     03ED  3001               	movlw	1
  5219     03EE  1283               	bcf	3,5	;RP0=0, select bank0
  5220     03EF  1303               	bcf	3,6	;RP1=0, select bank0
  5221     03F0  00E9               	movwf	??_floattostr
  5222     03F1  0869               	movf	??_floattostr,w
  5223     03F2  07E7               	addwf	floattostr@cadena_,f
  5224     03F3                     l3157:
  5225                           
  5226                           ;./floatstr.h: 51:         if (cont_for == largo_entera ) *cadena_++ = '.';
  5227     03F3  1683               	bsf	3,5	;RP0=1, select bank1
  5228     03F4  1303               	bcf	3,6	;RP1=0, select bank1
  5229     03F5  0856               	movf	(floattostr@largo_entera+1)^(0+128),w
  5230     03F6  0654               	xorwf	(floattostr@cont_for+1)^(0+128),w
  5231     03F7  1D03               	skipz
  5232     03F8  2BFB               	goto	u4045
  5233     03F9  0855               	movf	floattostr@largo_entera^(0+128),w
  5234     03FA  0653               	xorwf	floattostr@cont_for^(0+128),w
  5235     03FB                     u4045:
  5236     03FB  1D03               	skipz
  5237     03FC  2BFE               	goto	u4041
  5238     03FD  2BFF               	goto	u4040
  5239     03FE                     u4041:
  5240     03FE  2C09               	goto	l3163
  5241     03FF                     u4040:
  5242     03FF                     l3159:
  5243     03FF  1283               	bcf	3,5	;RP0=0, select bank0
  5244     0400  1303               	bcf	3,6	;RP1=0, select bank0
  5245     0401  0867               	movf	floattostr@cadena_,w
  5246     0402  0084               	movwf	4
  5247     0403  302E               	movlw	46
  5248     0404  0080               	movwf	0
  5249     0405                     l3161:
  5250     0405  3001               	movlw	1
  5251     0406  00E9               	movwf	??_floattostr
  5252     0407  0869               	movf	??_floattostr,w
  5253     0408  07E7               	addwf	floattostr@cadena_,f
  5254     0409                     l3163:
  5255                           
  5256                           ;./floatstr.h: 52:         numero_ -= (tempo_float=tempo_int);
  5257     0409  1683               	bsf	3,5	;RP0=1, select bank1
  5258     040A  1303               	bcf	3,6	;RP1=0, select bank1
  5259     040B  084B               	movf	floattostr@tempo_int^(0+128),w
  5260     040C  00F0               	movwf	___xxtofl@val
  5261     040D  084C               	movf	(floattostr@tempo_int+1)^(0+128),w
  5262     040E  00F1               	movwf	___xxtofl@val+1
  5263     040F  3000               	movlw	0
  5264     0410  1BF1               	btfsc	___xxtofl@val+1,7
  5265     0411  30FF               	movlw	255
  5266     0412  00F2               	movwf	___xxtofl@val+2
  5267     0413  00F3               	movwf	___xxtofl@val+3
  5268     0414  3001               	movlw	1
  5269     0415  160A  118A  2748  120A  118A  	fcall	___xxtofl
  5270     041A  0873               	movf	?___xxtofl+3,w
  5271     041B  1683               	bsf	3,5	;RP0=1, select bank1
  5272     041C  1303               	bcf	3,6	;RP1=0, select bank1
  5273     041D  00D0               	movwf	(floattostr@tempo_float+3)^(0+128)
  5274     041E  0872               	movf	?___xxtofl+2,w
  5275     041F  00CF               	movwf	(floattostr@tempo_float+2)^(0+128)
  5276     0420  0871               	movf	?___xxtofl+1,w
  5277     0421  00CE               	movwf	(floattostr@tempo_float+1)^(0+128)
  5278     0422  0870               	movf	?___xxtofl,w
  5279     0423  00CD               	movwf	floattostr@tempo_float^(0+128)
  5280     0424  0850               	movf	(floattostr@tempo_float+3)^(0+128),w
  5281     0425  1283               	bcf	3,5	;RP0=0, select bank0
  5282     0426  1303               	bcf	3,6	;RP1=0, select bank0
  5283     0427  00DE               	movwf	___flsub@a+3
  5284     0428  1683               	bsf	3,5	;RP0=1, select bank1
  5285     0429  1303               	bcf	3,6	;RP1=0, select bank1
  5286     042A  084F               	movf	(floattostr@tempo_float+2)^(0+128),w
  5287     042B  1283               	bcf	3,5	;RP0=0, select bank0
  5288     042C  1303               	bcf	3,6	;RP1=0, select bank0
  5289     042D  00DD               	movwf	___flsub@a+2
  5290     042E  1683               	bsf	3,5	;RP0=1, select bank1
  5291     042F  1303               	bcf	3,6	;RP1=0, select bank1
  5292     0430  084E               	movf	(floattostr@tempo_float+1)^(0+128),w
  5293     0431  1283               	bcf	3,5	;RP0=0, select bank0
  5294     0432  1303               	bcf	3,6	;RP1=0, select bank0
  5295     0433  00DC               	movwf	___flsub@a+1
  5296     0434  1683               	bsf	3,5	;RP0=1, select bank1
  5297     0435  1303               	bcf	3,6	;RP1=0, select bank1
  5298     0436  084D               	movf	floattostr@tempo_float^(0+128),w
  5299     0437  1283               	bcf	3,5	;RP0=0, select bank0
  5300     0438  1303               	bcf	3,6	;RP1=0, select bank0
  5301     0439  00DB               	movwf	___flsub@a
  5302     043A  0866               	movf	floattostr@numero_+3,w
  5303     043B  00E2               	movwf	___flsub@b+3
  5304     043C  0865               	movf	floattostr@numero_+2,w
  5305     043D  00E1               	movwf	___flsub@b+2
  5306     043E  0864               	movf	floattostr@numero_+1,w
  5307     043F  00E0               	movwf	___flsub@b+1
  5308     0440  0863               	movf	floattostr@numero_,w
  5309     0441  00DF               	movwf	___flsub@b
  5310     0442  160A  118A  220C  120A  118A  	fcall	___flsub
  5311     0447  1283               	bcf	3,5	;RP0=0, select bank0
  5312     0448  1303               	bcf	3,6	;RP1=0, select bank0
  5313     0449  085E               	movf	?___flsub+3,w
  5314     044A  00E6               	movwf	floattostr@numero_+3
  5315     044B  085D               	movf	?___flsub+2,w
  5316     044C  00E5               	movwf	floattostr@numero_+2
  5317     044D  085C               	movf	?___flsub+1,w
  5318     044E  00E4               	movwf	floattostr@numero_+1
  5319     044F  085B               	movf	?___flsub,w
  5320     0450  00E3               	movwf	floattostr@numero_
  5321     0451                     l3165:
  5322                           
  5323                           ;./floatstr.h: 53:         numero_ = numero_*10.0;
  5324     0451  3041               	movlw	65
  5325     0452  00B0               	movwf	___flmul@b+3
  5326     0453  3020               	movlw	32
  5327     0454  00AF               	movwf	___flmul@b+2
  5328     0455  3000               	movlw	0
  5329     0456  00AE               	movwf	___flmul@b+1
  5330     0457  3000               	movlw	0
  5331     0458  00AD               	movwf	___flmul@b
  5332     0459  0866               	movf	floattostr@numero_+3,w
  5333     045A  00B4               	movwf	___flmul@a+3
  5334     045B  0865               	movf	floattostr@numero_+2,w
  5335     045C  00B3               	movwf	___flmul@a+2
  5336     045D  0864               	movf	floattostr@numero_+1,w
  5337     045E  00B2               	movwf	___flmul@a+1
  5338     045F  0863               	movf	floattostr@numero_,w
  5339     0460  00B1               	movwf	___flmul@a
  5340     0461  120A  118A  2495  120A  118A  	fcall	___flmul
  5341     0466  1283               	bcf	3,5	;RP0=0, select bank0
  5342     0467  1303               	bcf	3,6	;RP1=0, select bank0
  5343     0468  0830               	movf	?___flmul+3,w
  5344     0469  00E6               	movwf	floattostr@numero_+3
  5345     046A  082F               	movf	?___flmul+2,w
  5346     046B  00E5               	movwf	floattostr@numero_+2
  5347     046C  082E               	movf	?___flmul+1,w
  5348     046D  00E4               	movwf	floattostr@numero_+1
  5349     046E  082D               	movf	?___flmul,w
  5350     046F  00E3               	movwf	floattostr@numero_
  5351     0470                     l3167:
  5352                           
  5353                           ;./floatstr.h: 54:     }
  5354     0470  3001               	movlw	1
  5355     0471  1683               	bsf	3,5	;RP0=1, select bank1
  5356     0472  1303               	bcf	3,6	;RP1=0, select bank1
  5357     0473  07D3               	addwf	floattostr@cont_for^(0+128),f
  5358     0474  1803               	skipnc
  5359     0475  0AD4               	incf	(floattostr@cont_for+1)^(0+128),f
  5360     0476  3000               	movlw	0
  5361     0477  07D4               	addwf	(floattostr@cont_for+1)^(0+128),f
  5362     0478                     l3169:
  5363     0478  0854               	movf	(floattostr@cont_for+1)^(0+128),w
  5364     0479  3A80               	xorlw	128
  5365     047A  1283               	bcf	3,5	;RP0=0, select bank0
  5366     047B  1303               	bcf	3,6	;RP1=0, select bank0
  5367     047C  00E9               	movwf	??_floattostr
  5368     047D  1683               	bsf	3,5	;RP0=1, select bank1
  5369     047E  1303               	bcf	3,6	;RP1=0, select bank1
  5370     047F  0852               	movf	(floattostr@largo_n+1)^(0+128),w
  5371     0480  3A80               	xorlw	128
  5372     0481  1283               	bcf	3,5	;RP0=0, select bank0
  5373     0482  1303               	bcf	3,6	;RP1=0, select bank0
  5374     0483  0269               	subwf	??_floattostr,w
  5375     0484  1D03               	skipz
  5376     0485  2C8A               	goto	u4055
  5377     0486  1683               	bsf	3,5	;RP0=1, select bank1
  5378     0487  1303               	bcf	3,6	;RP1=0, select bank1
  5379     0488  0851               	movf	floattostr@largo_n^(0+128),w
  5380     0489  0253               	subwf	floattostr@cont_for^(0+128),w
  5381     048A                     u4055:
  5382     048A  1C03               	skipc
  5383     048B  2C8D               	goto	u4051
  5384     048C  2C8E               	goto	u4050
  5385     048D                     u4051:
  5386     048D  2BCE               	goto	l3151
  5387     048E                     u4050:
  5388     048E                     l3171:
  5389                           
  5390                           ;./floatstr.h: 55:     *cadena_ = 0;
  5391     048E  1283               	bcf	3,5	;RP0=0, select bank0
  5392     048F  1303               	bcf	3,6	;RP1=0, select bank0
  5393     0490  0867               	movf	floattostr@cadena_,w
  5394     0491  0084               	movwf	4
  5395     0492  1383               	bcf	3,7	;select IRP bank0
  5396     0493  0180               	clrf	0
  5397     0494                     l224:
  5398     0494  0008               	return
  5399     0495                     __end_of_floattostr:
  5400                           
  5401                           	psect	text21
  5402     1748                     __ptext21:	
  5403 ;; *************** function ___xxtofl *****************
  5404 ;; Defined at:
  5405 ;;		line 10 in file "C:\Program Files\Microchip\xc8\v2.40\pic\sources\c90\common\xxtofl.c"
  5406 ;; Parameters:    Size  Location     Type
  5407 ;;  sign            1    wreg     unsigned char 
  5408 ;;  val             4    0[COMMON] long 
  5409 ;; Auto vars:     Size  Location     Type
  5410 ;;  sign            1    8[COMMON] unsigned char 
  5411 ;;  arg             4   10[COMMON] unsigned long 
  5412 ;;  exp             1    9[COMMON] unsigned char 
  5413 ;; Return value:  Size  Location     Type
  5414 ;;                  4    0[COMMON] unsigned char 
  5415 ;; Registers used:
  5416 ;;		wreg, status,2, status,0
  5417 ;; Tracked objects:
  5418 ;;		On entry : 0/0
  5419 ;;		On exit  : 0/0
  5420 ;;		Unchanged: 0/0
  5421 ;; Data sizes:     COMMON   BANK0   BANK1   BANK3   BANK2
  5422 ;;      Params:         4       0       0       0       0
  5423 ;;      Locals:         6       0       0       0       0
  5424 ;;      Temps:          4       0       0       0       0
  5425 ;;      Totals:        14       0       0       0       0
  5426 ;;Total ram usage:       14 bytes
  5427 ;; Hardware stack levels used: 1
  5428 ;; This function calls:
  5429 ;;		Nothing
  5430 ;; This function is called by:
  5431 ;;		_floattostr
  5432 ;;		_AHT10_Read
  5433 ;; This function uses a non-reentrant model
  5434 ;;
  5435                           
  5436     1748                     ___xxtofl:	
  5437                           ;psect for function ___xxtofl
  5438                           
  5439                           
  5440                           ;incstack = 0
  5441                           ; Regs used in ___xxtofl: [wreg+status,2+status,0]
  5442                           ;___xxtofl@sign stored from wreg
  5443     1748  00F8               	movwf	___xxtofl@sign
  5444     1749                     l2975:
  5445     1749  0878               	movf	___xxtofl@sign,w
  5446     174A  1903               	btfsc	3,2
  5447     174B  2F4D               	goto	u3741
  5448     174C  2F4E               	goto	u3740
  5449     174D                     u3741:
  5450     174D  2F62               	goto	l2981
  5451     174E                     u3740:
  5452     174E                     l2977:
  5453     174E  1FF3               	btfss	___xxtofl@val+3,7
  5454     174F  2F51               	goto	u3751
  5455     1750  2F52               	goto	u3750
  5456     1751                     u3751:
  5457     1751  2F62               	goto	l2981
  5458     1752                     u3750:
  5459     1752                     l2979:
  5460     1752  0970               	comf	___xxtofl@val,w
  5461     1753  00FA               	movwf	___xxtofl@arg
  5462     1754  0971               	comf	___xxtofl@val+1,w
  5463     1755  00FB               	movwf	___xxtofl@arg+1
  5464     1756  0972               	comf	___xxtofl@val+2,w
  5465     1757  00FC               	movwf	___xxtofl@arg+2
  5466     1758  0973               	comf	___xxtofl@val+3,w
  5467     1759  00FD               	movwf	___xxtofl@arg+3
  5468     175A  0AFA               	incf	___xxtofl@arg,f
  5469     175B  1903               	skipnz
  5470     175C  0AFB               	incf	___xxtofl@arg+1,f
  5471     175D  1903               	skipnz
  5472     175E  0AFC               	incf	___xxtofl@arg+2,f
  5473     175F  1903               	skipnz
  5474     1760  0AFD               	incf	___xxtofl@arg+3,f
  5475     1761  2F6A               	goto	l912
  5476     1762                     l2981:
  5477     1762  0873               	movf	___xxtofl@val+3,w
  5478     1763  00FD               	movwf	___xxtofl@arg+3
  5479     1764  0872               	movf	___xxtofl@val+2,w
  5480     1765  00FC               	movwf	___xxtofl@arg+2
  5481     1766  0871               	movf	___xxtofl@val+1,w
  5482     1767  00FB               	movwf	___xxtofl@arg+1
  5483     1768  0870               	movf	___xxtofl@val,w
  5484     1769  00FA               	movwf	___xxtofl@arg
  5485     176A                     l912:
  5486     176A  0873               	movf	___xxtofl@val+3,w
  5487     176B  0472               	iorwf	___xxtofl@val+2,w
  5488     176C  0471               	iorwf	___xxtofl@val+1,w
  5489     176D  0470               	iorwf	___xxtofl@val,w
  5490     176E  1D03               	skipz
  5491     176F  2F71               	goto	u3761
  5492     1770  2F72               	goto	u3760
  5493     1771                     u3761:
  5494     1771  2F7B               	goto	l2987
  5495     1772                     u3760:
  5496     1772                     l2983:
  5497     1772  3000               	movlw	0
  5498     1773  00F3               	movwf	?___xxtofl+3
  5499     1774  3000               	movlw	0
  5500     1775  00F2               	movwf	?___xxtofl+2
  5501     1776  3000               	movlw	0
  5502     1777  00F1               	movwf	?___xxtofl+1
  5503     1778  3000               	movlw	0
  5504     1779  00F0               	movwf	?___xxtofl
  5505     177A  2FFF               	goto	l914
  5506     177B                     l2987:
  5507     177B  3096               	movlw	150
  5508     177C  00F9               	movwf	___xxtofl@exp
  5509     177D  2F8B               	goto	l2991
  5510     177E                     l2989:
  5511     177E  3001               	movlw	1
  5512     177F  00F4               	movwf	??___xxtofl
  5513     1780  0874               	movf	??___xxtofl,w
  5514     1781  07F9               	addwf	___xxtofl@exp,f
  5515     1782  3001               	movlw	1
  5516     1783                     u3775:
  5517     1783  1003               	clrc
  5518     1784  0CFD               	rrf	___xxtofl@arg+3,f
  5519     1785  0CFC               	rrf	___xxtofl@arg+2,f
  5520     1786  0CFB               	rrf	___xxtofl@arg+1,f
  5521     1787  0CFA               	rrf	___xxtofl@arg,f
  5522     1788  3EFF               	addlw	-1
  5523     1789  1D03               	skipz
  5524     178A  2F83               	goto	u3775
  5525     178B                     l2991:
  5526     178B  30FE               	movlw	254
  5527     178C  057D               	andwf	___xxtofl@arg+3,w
  5528     178D  1D03               	btfss	3,2
  5529     178E  2F90               	goto	u3781
  5530     178F  2F91               	goto	u3780
  5531     1790                     u3781:
  5532     1790  2F7E               	goto	l2989
  5533     1791                     u3780:
  5534     1791  2FAD               	goto	l918
  5535     1792                     l2993:
  5536     1792  3001               	movlw	1
  5537     1793  00F4               	movwf	??___xxtofl
  5538     1794  0874               	movf	??___xxtofl,w
  5539     1795  07F9               	addwf	___xxtofl@exp,f
  5540     1796                     l2995:
  5541     1796  3001               	movlw	1
  5542     1797  07FA               	addwf	___xxtofl@arg,f
  5543     1798  3000               	movlw	0
  5544     1799  1803               	skipnc
  5545     179A  3001               	movlw	1
  5546     179B  07FB               	addwf	___xxtofl@arg+1,f
  5547     179C  3000               	movlw	0
  5548     179D  1803               	skipnc
  5549     179E  3001               	movlw	1
  5550     179F  07FC               	addwf	___xxtofl@arg+2,f
  5551     17A0  3000               	movlw	0
  5552     17A1  1803               	skipnc
  5553     17A2  3001               	movlw	1
  5554     17A3  07FD               	addwf	___xxtofl@arg+3,f
  5555     17A4                     l2997:
  5556     17A4  3001               	movlw	1
  5557     17A5                     u3795:
  5558     17A5  1003               	clrc
  5559     17A6  0CFD               	rrf	___xxtofl@arg+3,f
  5560     17A7  0CFC               	rrf	___xxtofl@arg+2,f
  5561     17A8  0CFB               	rrf	___xxtofl@arg+1,f
  5562     17A9  0CFA               	rrf	___xxtofl@arg,f
  5563     17AA  3EFF               	addlw	-1
  5564     17AB  1D03               	skipz
  5565     17AC  2FA5               	goto	u3795
  5566     17AD                     l918:
  5567     17AD  30FF               	movlw	255
  5568     17AE  057D               	andwf	___xxtofl@arg+3,w
  5569     17AF  1D03               	btfss	3,2
  5570     17B0  2FB2               	goto	u3801
  5571     17B1  2FB3               	goto	u3800
  5572     17B2                     u3801:
  5573     17B2  2F92               	goto	l2993
  5574     17B3                     u3800:
  5575     17B3  2FBF               	goto	l3001
  5576     17B4                     l2999:
  5577     17B4  3001               	movlw	1
  5578     17B5  02F9               	subwf	___xxtofl@exp,f
  5579     17B6  3001               	movlw	1
  5580     17B7  00F4               	movwf	??___xxtofl
  5581     17B8                     u3815:
  5582     17B8  1003               	clrc
  5583     17B9  0DFA               	rlf	___xxtofl@arg,f
  5584     17BA  0DFB               	rlf	___xxtofl@arg+1,f
  5585     17BB  0DFC               	rlf	___xxtofl@arg+2,f
  5586     17BC  0DFD               	rlf	___xxtofl@arg+3,f
  5587     17BD  0BF4               	decfsz	??___xxtofl,f
  5588     17BE  2FB8               	goto	u3815
  5589     17BF                     l3001:
  5590     17BF  1BFC               	btfsc	___xxtofl@arg+2,7
  5591     17C0  2FC2               	goto	u3821
  5592     17C1  2FC3               	goto	u3820
  5593     17C2                     u3821:
  5594     17C2  2FC9               	goto	l925
  5595     17C3                     u3820:
  5596     17C3                     l3003:
  5597     17C3  3002               	movlw	2
  5598     17C4  0279               	subwf	___xxtofl@exp,w
  5599     17C5  1803               	skipnc
  5600     17C6  2FC8               	goto	u3831
  5601     17C7  2FC9               	goto	u3830
  5602     17C8                     u3831:
  5603     17C8  2FB4               	goto	l2999
  5604     17C9                     u3830:
  5605     17C9                     l925:
  5606     17C9  1879               	btfsc	___xxtofl@exp,0
  5607     17CA  2FCC               	goto	u3841
  5608     17CB  2FCD               	goto	u3840
  5609     17CC                     u3841:
  5610     17CC  2FD5               	goto	l926
  5611     17CD                     u3840:
  5612     17CD                     l3005:
  5613     17CD  30FF               	movlw	255
  5614     17CE  05FA               	andwf	___xxtofl@arg,f
  5615     17CF  30FF               	movlw	255
  5616     17D0  05FB               	andwf	___xxtofl@arg+1,f
  5617     17D1  307F               	movlw	127
  5618     17D2  05FC               	andwf	___xxtofl@arg+2,f
  5619     17D3  30FF               	movlw	255
  5620     17D4  05FD               	andwf	___xxtofl@arg+3,f
  5621     17D5                     l926:
  5622     17D5  1003               	clrc
  5623     17D6  0CF9               	rrf	___xxtofl@exp,f
  5624     17D7                     l3007:
  5625     17D7  0879               	movf	___xxtofl@exp,w
  5626     17D8  00F4               	movwf	??___xxtofl
  5627     17D9  01F5               	clrf	??___xxtofl+1
  5628     17DA  01F6               	clrf	??___xxtofl+2
  5629     17DB  01F7               	clrf	??___xxtofl+3
  5630     17DC  3018               	movlw	24
  5631     17DD                     u3855:
  5632     17DD  1003               	clrc
  5633     17DE  0DF4               	rlf	??___xxtofl,f
  5634     17DF  0DF5               	rlf	??___xxtofl+1,f
  5635     17E0  0DF6               	rlf	??___xxtofl+2,f
  5636     17E1  0DF7               	rlf	??___xxtofl+3,f
  5637     17E2                     u3850:
  5638     17E2  3EFF               	addlw	-1
  5639     17E3  1D03               	skipz
  5640     17E4  2FDD               	goto	u3855
  5641     17E5  0874               	movf	??___xxtofl,w
  5642     17E6  04FA               	iorwf	___xxtofl@arg,f
  5643     17E7  0875               	movf	??___xxtofl+1,w
  5644     17E8  04FB               	iorwf	___xxtofl@arg+1,f
  5645     17E9  0876               	movf	??___xxtofl+2,w
  5646     17EA  04FC               	iorwf	___xxtofl@arg+2,f
  5647     17EB  0877               	movf	??___xxtofl+3,w
  5648     17EC  04FD               	iorwf	___xxtofl@arg+3,f
  5649     17ED                     l3009:
  5650     17ED  0878               	movf	___xxtofl@sign,w
  5651     17EE  1903               	btfsc	3,2
  5652     17EF  2FF1               	goto	u3861
  5653     17F0  2FF2               	goto	u3860
  5654     17F1                     u3861:
  5655     17F1  2FF7               	goto	l3015
  5656     17F2                     u3860:
  5657     17F2                     l3011:
  5658     17F2  1FF3               	btfss	___xxtofl@val+3,7
  5659     17F3  2FF5               	goto	u3871
  5660     17F4  2FF6               	goto	u3870
  5661     17F5                     u3871:
  5662     17F5  2FF7               	goto	l3015
  5663     17F6                     u3870:
  5664     17F6                     l3013:
  5665     17F6  17FD               	bsf	___xxtofl@arg+3,7
  5666     17F7                     l3015:
  5667     17F7  087D               	movf	___xxtofl@arg+3,w
  5668     17F8  00F3               	movwf	?___xxtofl+3
  5669     17F9  087C               	movf	___xxtofl@arg+2,w
  5670     17FA  00F2               	movwf	?___xxtofl+2
  5671     17FB  087B               	movf	___xxtofl@arg+1,w
  5672     17FC  00F1               	movwf	?___xxtofl+1
  5673     17FD  087A               	movf	___xxtofl@arg,w
  5674     17FE  00F0               	movwf	?___xxtofl
  5675     17FF                     l914:
  5676     17FF  0008               	return
  5677     1800                     __end_of___xxtofl:
  5678                           
  5679                           	psect	text22
  5680     1630                     __ptext22:	
  5681 ;; *************** function ___fltol *****************
  5682 ;; Defined at:
  5683 ;;		line 43 in file "C:\Program Files\Microchip\xc8\v2.40\pic\sources\c90\common\fltol.c"
  5684 ;; Parameters:    Size  Location     Type
  5685 ;;  f1              4    0[COMMON] unsigned char 
  5686 ;; Auto vars:     Size  Location     Type
  5687 ;;  exp1            1    9[COMMON] unsigned char 
  5688 ;;  sign1           1    8[COMMON] unsigned char 
  5689 ;; Return value:  Size  Location     Type
  5690 ;;                  4    0[COMMON] long 
  5691 ;; Registers used:
  5692 ;;		wreg, status,2, status,0
  5693 ;; Tracked objects:
  5694 ;;		On entry : 0/0
  5695 ;;		On exit  : 0/0
  5696 ;;		Unchanged: 0/0
  5697 ;; Data sizes:     COMMON   BANK0   BANK1   BANK3   BANK2
  5698 ;;      Params:         4       0       0       0       0
  5699 ;;      Locals:         2       0       0       0       0
  5700 ;;      Temps:          4       0       0       0       0
  5701 ;;      Totals:        10       0       0       0       0
  5702 ;;Total ram usage:       10 bytes
  5703 ;; Hardware stack levels used: 1
  5704 ;; This function calls:
  5705 ;;		Nothing
  5706 ;; This function is called by:
  5707 ;;		_floattostr
  5708 ;;		_DCOnOff
  5709 ;; This function uses a non-reentrant model
  5710 ;;
  5711                           
  5712     1630                     ___fltol:	
  5713                           ;psect for function ___fltol
  5714                           
  5715     1630                     l2603:	
  5716                           ;incstack = 0
  5717                           ; Regs used in ___fltol: [wreg+status,2+status,0]
  5718                           
  5719     1630  1003               	clrc
  5720     1631  0D72               	rlf	___fltol@f1+2,w
  5721     1632  0D73               	rlf	___fltol@f1+3,w
  5722     1633  00F9               	movwf	___fltol@exp1
  5723     1634  0879               	movf	___fltol@exp1,w
  5724     1635  1D03               	btfss	3,2
  5725     1636  2E38               	goto	u2841
  5726     1637  2E39               	goto	u2840
  5727     1638                     u2841:
  5728     1638  2E42               	goto	l2609
  5729     1639                     u2840:
  5730     1639                     l2605:
  5731     1639  3000               	movlw	0
  5732     163A  00F3               	movwf	?___fltol+3
  5733     163B  3000               	movlw	0
  5734     163C  00F2               	movwf	?___fltol+2
  5735     163D  3000               	movlw	0
  5736     163E  00F1               	movwf	?___fltol+1
  5737     163F  3000               	movlw	0
  5738     1640  00F0               	movwf	?___fltol
  5739     1641  2EA5               	goto	l665
  5740     1642                     l2609:
  5741     1642  0870               	movf	___fltol@f1,w
  5742     1643  00F4               	movwf	??___fltol
  5743     1644  0871               	movf	___fltol@f1+1,w
  5744     1645  00F5               	movwf	??___fltol+1
  5745     1646  0872               	movf	___fltol@f1+2,w
  5746     1647  00F6               	movwf	??___fltol+2
  5747     1648  0873               	movf	___fltol@f1+3,w
  5748     1649  00F7               	movwf	??___fltol+3
  5749     164A  301F               	movlw	31
  5750     164B                     u2855:
  5751     164B  1003               	clrc
  5752     164C  0CF7               	rrf	??___fltol+3,f
  5753     164D  0CF6               	rrf	??___fltol+2,f
  5754     164E  0CF5               	rrf	??___fltol+1,f
  5755     164F  0CF4               	rrf	??___fltol,f
  5756     1650                     u2850:
  5757     1650  3EFF               	addlw	-1
  5758     1651  1D03               	skipz
  5759     1652  2E4B               	goto	u2855
  5760     1653  0874               	movf	??___fltol,w
  5761     1654  00F8               	movwf	___fltol@sign1
  5762     1655                     l2611:
  5763     1655  17F2               	bsf	___fltol@f1+2,7
  5764     1656                     l2613:
  5765     1656  30FF               	movlw	255
  5766     1657  05F0               	andwf	___fltol@f1,f
  5767     1658  30FF               	movlw	255
  5768     1659  05F1               	andwf	___fltol@f1+1,f
  5769     165A  30FF               	movlw	255
  5770     165B  05F2               	andwf	___fltol@f1+2,f
  5771     165C  3000               	movlw	0
  5772     165D  05F3               	andwf	___fltol@f1+3,f
  5773     165E                     l2615:
  5774     165E  3096               	movlw	150
  5775     165F  02F9               	subwf	___fltol@exp1,f
  5776     1660                     l2617:
  5777     1660  1FF9               	btfss	___fltol@exp1,7
  5778     1661  2E63               	goto	u2861
  5779     1662  2E64               	goto	u2860
  5780     1663                     u2861:
  5781     1663  2E7E               	goto	l2627
  5782     1664                     u2860:
  5783     1664                     l2619:
  5784     1664  0879               	movf	___fltol@exp1,w
  5785     1665  3A80               	xorlw	128
  5786     1666  3E97               	addlw	151
  5787     1667  1803               	skipnc
  5788     1668  2E6A               	goto	u2871
  5789     1669  2E6B               	goto	u2870
  5790     166A                     u2871:
  5791     166A  2E6C               	goto	l2625
  5792     166B                     u2870:
  5793     166B  2E39               	goto	l2605
  5794     166C                     l2625:
  5795     166C  3001               	movlw	1
  5796     166D                     u2885:
  5797     166D  1003               	clrc
  5798     166E  0CF3               	rrf	___fltol@f1+3,f
  5799     166F  0CF2               	rrf	___fltol@f1+2,f
  5800     1670  0CF1               	rrf	___fltol@f1+1,f
  5801     1671  0CF0               	rrf	___fltol@f1,f
  5802     1672  3EFF               	addlw	-1
  5803     1673  1D03               	skipz
  5804     1674  2E6D               	goto	u2885
  5805     1675  3001               	movlw	1
  5806     1676  00F4               	movwf	??___fltol
  5807     1677  0874               	movf	??___fltol,w
  5808     1678  07F9               	addwf	___fltol@exp1,f
  5809     1679  1D03               	btfss	3,2
  5810     167A  2E7C               	goto	u2891
  5811     167B  2E7D               	goto	u2890
  5812     167C                     u2891:
  5813     167C  2E6C               	goto	l2625
  5814     167D                     u2890:
  5815     167D  2E95               	goto	l2635
  5816     167E                     l2627:
  5817     167E  3020               	movlw	32
  5818     167F  0279               	subwf	___fltol@exp1,w
  5819     1680  1C03               	skipc
  5820     1681  2E83               	goto	u2901
  5821     1682  2E84               	goto	u2900
  5822     1683                     u2901:
  5823     1683  2E90               	goto	l672
  5824     1684                     u2900:
  5825     1684  2E39               	goto	l2605
  5826     1685                     l2633:
  5827     1685  3001               	movlw	1
  5828     1686  00F4               	movwf	??___fltol
  5829     1687                     u2915:
  5830     1687  1003               	clrc
  5831     1688  0DF0               	rlf	___fltol@f1,f
  5832     1689  0DF1               	rlf	___fltol@f1+1,f
  5833     168A  0DF2               	rlf	___fltol@f1+2,f
  5834     168B  0DF3               	rlf	___fltol@f1+3,f
  5835     168C  0BF4               	decfsz	??___fltol,f
  5836     168D  2E87               	goto	u2915
  5837     168E  3001               	movlw	1
  5838     168F  02F9               	subwf	___fltol@exp1,f
  5839     1690                     l672:
  5840     1690  0879               	movf	___fltol@exp1,w
  5841     1691  1D03               	btfss	3,2
  5842     1692  2E94               	goto	u2921
  5843     1693  2E95               	goto	u2920
  5844     1694                     u2921:
  5845     1694  2E85               	goto	l2633
  5846     1695                     u2920:
  5847     1695                     l2635:
  5848     1695  0878               	movf	___fltol@sign1,w
  5849     1696  1903               	btfsc	3,2
  5850     1697  2E99               	goto	u2931
  5851     1698  2E9A               	goto	u2930
  5852     1699                     u2931:
  5853     1699  2EA5               	goto	l675
  5854     169A                     u2930:
  5855     169A                     l2637:
  5856     169A  09F0               	comf	___fltol@f1,f
  5857     169B  09F1               	comf	___fltol@f1+1,f
  5858     169C  09F2               	comf	___fltol@f1+2,f
  5859     169D  09F3               	comf	___fltol@f1+3,f
  5860     169E  0AF0               	incf	___fltol@f1,f
  5861     169F  1903               	skipnz
  5862     16A0  0AF1               	incf	___fltol@f1+1,f
  5863     16A1  1903               	skipnz
  5864     16A2  0AF2               	incf	___fltol@f1+2,f
  5865     16A3  1903               	skipnz
  5866     16A4  0AF3               	incf	___fltol@f1+3,f
  5867     16A5                     l675:
  5868     16A5                     l665:
  5869     16A5  0008               	return
  5870     16A6                     __end_of___fltol:
  5871                           
  5872                           	psect	text23
  5873     120C                     __ptext23:	
  5874 ;; *************** function ___flsub *****************
  5875 ;; Defined at:
  5876 ;;		line 242 in file "C:\Program Files\Microchip\xc8\v2.40\pic\sources\c90\common\sprcadd.c"
  5877 ;; Parameters:    Size  Location     Type
  5878 ;;  a               4   59[BANK0 ] long 
  5879 ;;  b               4   63[BANK0 ] long 
  5880 ;; Auto vars:     Size  Location     Type
  5881 ;;		None
  5882 ;; Return value:  Size  Location     Type
  5883 ;;                  4   59[BANK0 ] long 
  5884 ;; Registers used:
  5885 ;;		wreg, status,2, status,0, btemp+1, pclath, cstack
  5886 ;; Tracked objects:
  5887 ;;		On entry : 0/0
  5888 ;;		On exit  : 0/0
  5889 ;;		Unchanged: 0/0
  5890 ;; Data sizes:     COMMON   BANK0   BANK1   BANK3   BANK2
  5891 ;;      Params:         0       8       0       0       0
  5892 ;;      Locals:         0       0       0       0       0
  5893 ;;      Temps:          0       0       0       0       0
  5894 ;;      Totals:         0       8       0       0       0
  5895 ;;Total ram usage:        8 bytes
  5896 ;; Hardware stack levels used: 1
  5897 ;; Hardware stack levels required when called: 1
  5898 ;; This function calls:
  5899 ;;		___fladd
  5900 ;; This function is called by:
  5901 ;;		_floattostr
  5902 ;; This function uses a non-reentrant model
  5903 ;;
  5904                           
  5905     120C                     ___flsub:	
  5906                           ;psect for function ___flsub
  5907                           
  5908     120C                     l2687:	
  5909                           ;incstack = 0
  5910                           ; Regs used in ___flsub: [wreg+status,2+status,0+btemp+1+pclath+cstack]
  5911                           
  5912     120C  3080               	movlw	128
  5913     120D  1283               	bcf	3,5	;RP0=0, select bank0
  5914     120E  1303               	bcf	3,6	;RP1=0, select bank0
  5915     120F  06DE               	xorwf	___flsub@a+3,f
  5916     1210                     l2689:
  5917     1210  0862               	movf	___flsub@b+3,w
  5918     1211  00CA               	movwf	___fladd@b+3
  5919     1212  0861               	movf	___flsub@b+2,w
  5920     1213  00C9               	movwf	___fladd@b+2
  5921     1214  0860               	movf	___flsub@b+1,w
  5922     1215  00C8               	movwf	___fladd@b+1
  5923     1216  085F               	movf	___flsub@b,w
  5924     1217  00C7               	movwf	___fladd@b
  5925     1218  085E               	movf	___flsub@a+3,w
  5926     1219  00CE               	movwf	___fladd@a+3
  5927     121A  085D               	movf	___flsub@a+2,w
  5928     121B  00CD               	movwf	___fladd@a+2
  5929     121C  085C               	movf	___flsub@a+1,w
  5930     121D  00CC               	movwf	___fladd@a+1
  5931     121E  085B               	movf	___flsub@a,w
  5932     121F  00CB               	movwf	___fladd@a
  5933     1220  120A  158A  25A8  160A  118A  	fcall	___fladd
  5934     1225  1283               	bcf	3,5	;RP0=0, select bank0
  5935     1226  1303               	bcf	3,6	;RP1=0, select bank0
  5936     1227  084A               	movf	?___fladd+3,w
  5937     1228  00DE               	movwf	?___flsub+3
  5938     1229  0849               	movf	?___fladd+2,w
  5939     122A  00DD               	movwf	?___flsub+2
  5940     122B  0848               	movf	?___fladd+1,w
  5941     122C  00DC               	movwf	?___flsub+1
  5942     122D  0847               	movf	?___fladd,w
  5943     122E  00DB               	movwf	?___flsub
  5944     122F                     l818:
  5945     122F  0008               	return
  5946     1230                     __end_of___flsub:
  5947                           
  5948                           	psect	text24
  5949     0DA8                     __ptext24:	
  5950 ;; *************** function ___fladd *****************
  5951 ;; Defined at:
  5952 ;;		line 10 in file "C:\Program Files\Microchip\xc8\v2.40\pic\sources\c90\common\sprcadd.c"
  5953 ;; Parameters:    Size  Location     Type
  5954 ;;  b               4   39[BANK0 ] long 
  5955 ;;  a               4   43[BANK0 ] long 
  5956 ;; Auto vars:     Size  Location     Type
  5957 ;;  grs             1   58[BANK0 ] unsigned char 
  5958 ;;  bexp            1   57[BANK0 ] unsigned char 
  5959 ;;  aexp            1   56[BANK0 ] unsigned char 
  5960 ;;  signs           1   55[BANK0 ] unsigned char 
  5961 ;; Return value:  Size  Location     Type
  5962 ;;                  4   39[BANK0 ] unsigned char 
  5963 ;; Registers used:
  5964 ;;		wreg, status,2, status,0, btemp+1
  5965 ;; Tracked objects:
  5966 ;;		On entry : 0/0
  5967 ;;		On exit  : 0/0
  5968 ;;		Unchanged: 0/0
  5969 ;; Data sizes:     COMMON   BANK0   BANK1   BANK3   BANK2
  5970 ;;      Params:         0       8       0       0       0
  5971 ;;      Locals:         0       4       0       0       0
  5972 ;;      Temps:          0       8       0       0       0
  5973 ;;      Totals:         0      20       0       0       0
  5974 ;;Total ram usage:       20 bytes
  5975 ;; Hardware stack levels used: 1
  5976 ;; This function calls:
  5977 ;;		Nothing
  5978 ;; This function is called by:
  5979 ;;		_floattostr
  5980 ;;		_AHT10_Read
  5981 ;;		___flsub
  5982 ;; This function uses a non-reentrant model
  5983 ;;
  5984                           
  5985     0DA8                     ___fladd:	
  5986                           ;psect for function ___fladd
  5987                           
  5988     0DA8                     l2319:	
  5989                           ;incstack = 0
  5990                           ; Regs used in ___fladd: [wreg+status,2+status,0+btemp+1]
  5991                           
  5992     0DA8  1283               	bcf	3,5	;RP0=0, select bank0
  5993     0DA9  1303               	bcf	3,6	;RP1=0, select bank0
  5994     0DAA  084A               	movf	___fladd@b+3,w
  5995     0DAB  3980               	andlw	128
  5996     0DAC  00D7               	movwf	___fladd@signs
  5997     0DAD                     l2321:
  5998     0DAD  084A               	movf	___fladd@b+3,w
  5999     0DAE  00CF               	movwf	??___fladd
  6000     0DAF  074F               	addwf	??___fladd,w
  6001     0DB0  00D9               	movwf	___fladd@bexp
  6002     0DB1                     l2323:
  6003     0DB1  1FC9               	btfss	___fladd@b+2,7
  6004     0DB2  2DB4               	goto	u2181
  6005     0DB3  2DB5               	goto	u2180
  6006     0DB4                     u2181:
  6007     0DB4  2DB6               	goto	l2327
  6008     0DB5                     u2180:
  6009     0DB5                     l2325:
  6010     0DB5  1459               	bsf	___fladd@bexp,0
  6011     0DB6                     l2327:
  6012     0DB6  0859               	movf	___fladd@bexp,w
  6013     0DB7  1903               	btfsc	3,2
  6014     0DB8  2DBA               	goto	u2191
  6015     0DB9  2DBB               	goto	u2190
  6016     0DBA                     u2191:
  6017     0DBA  2DCB               	goto	l2337
  6018     0DBB                     u2190:
  6019     0DBB                     l2329:
  6020     0DBB  0A59               	incf	___fladd@bexp,w
  6021     0DBC  1D03               	btfss	3,2
  6022     0DBD  2DBF               	goto	u2201
  6023     0DBE  2DC0               	goto	u2200
  6024     0DBF                     u2201:
  6025     0DBF  2DC8               	goto	l2333
  6026     0DC0                     u2200:
  6027     0DC0                     l2331:
  6028     0DC0  3000               	movlw	0
  6029     0DC1  00CA               	movwf	___fladd@b+3
  6030     0DC2  3000               	movlw	0
  6031     0DC3  00C9               	movwf	___fladd@b+2
  6032     0DC4  3000               	movlw	0
  6033     0DC5  00C8               	movwf	___fladd@b+1
  6034     0DC6  3000               	movlw	0
  6035     0DC7  00C7               	movwf	___fladd@b
  6036     0DC8                     l2333:
  6037     0DC8  17C9               	bsf	___fladd@b+2,7
  6038     0DC9                     l2335:
  6039     0DC9  01CA               	clrf	___fladd@b+3
  6040     0DCA  2DD3               	goto	l2339
  6041     0DCB                     l2337:
  6042     0DCB  3000               	movlw	0
  6043     0DCC  00CA               	movwf	___fladd@b+3
  6044     0DCD  3000               	movlw	0
  6045     0DCE  00C9               	movwf	___fladd@b+2
  6046     0DCF  3000               	movlw	0
  6047     0DD0  00C8               	movwf	___fladd@b+1
  6048     0DD1  3000               	movlw	0
  6049     0DD2  00C7               	movwf	___fladd@b
  6050     0DD3                     l2339:
  6051     0DD3  084E               	movf	___fladd@a+3,w
  6052     0DD4  3980               	andlw	128
  6053     0DD5  00D8               	movwf	___fladd@aexp
  6054     0DD6                     l2341:
  6055     0DD6  0858               	movf	___fladd@aexp,w
  6056     0DD7  0657               	xorwf	___fladd@signs,w
  6057     0DD8  1903               	skipnz
  6058     0DD9  2DDB               	goto	u2211
  6059     0DDA  2DDC               	goto	u2210
  6060     0DDB                     u2211:
  6061     0DDB  2DDD               	goto	l2345
  6062     0DDC                     u2210:
  6063     0DDC                     l2343:
  6064     0DDC  1757               	bsf	___fladd@signs,6
  6065     0DDD                     l2345:
  6066     0DDD  084E               	movf	___fladd@a+3,w
  6067     0DDE  00CF               	movwf	??___fladd
  6068     0DDF  074F               	addwf	??___fladd,w
  6069     0DE0  00D8               	movwf	___fladd@aexp
  6070     0DE1                     l2347:
  6071     0DE1  1FCD               	btfss	___fladd@a+2,7
  6072     0DE2  2DE4               	goto	u2221
  6073     0DE3  2DE5               	goto	u2220
  6074     0DE4                     u2221:
  6075     0DE4  2DE6               	goto	l2351
  6076     0DE5                     u2220:
  6077     0DE5                     l2349:
  6078     0DE5  1458               	bsf	___fladd@aexp,0
  6079     0DE6                     l2351:
  6080     0DE6  0858               	movf	___fladd@aexp,w
  6081     0DE7  1903               	btfsc	3,2
  6082     0DE8  2DEA               	goto	u2231
  6083     0DE9  2DEB               	goto	u2230
  6084     0DEA                     u2231:
  6085     0DEA  2DFB               	goto	l2361
  6086     0DEB                     u2230:
  6087     0DEB                     l2353:
  6088     0DEB  0A58               	incf	___fladd@aexp,w
  6089     0DEC  1D03               	btfss	3,2
  6090     0DED  2DEF               	goto	u2241
  6091     0DEE  2DF0               	goto	u2240
  6092     0DEF                     u2241:
  6093     0DEF  2DF8               	goto	l2357
  6094     0DF0                     u2240:
  6095     0DF0                     l2355:
  6096     0DF0  3000               	movlw	0
  6097     0DF1  00CE               	movwf	___fladd@a+3
  6098     0DF2  3000               	movlw	0
  6099     0DF3  00CD               	movwf	___fladd@a+2
  6100     0DF4  3000               	movlw	0
  6101     0DF5  00CC               	movwf	___fladd@a+1
  6102     0DF6  3000               	movlw	0
  6103     0DF7  00CB               	movwf	___fladd@a
  6104     0DF8                     l2357:
  6105     0DF8  17CD               	bsf	___fladd@a+2,7
  6106     0DF9                     l2359:
  6107     0DF9  01CE               	clrf	___fladd@a+3
  6108     0DFA  2E03               	goto	l772
  6109     0DFB                     l2361:
  6110     0DFB  3000               	movlw	0
  6111     0DFC  00CE               	movwf	___fladd@a+3
  6112     0DFD  3000               	movlw	0
  6113     0DFE  00CD               	movwf	___fladd@a+2
  6114     0DFF  3000               	movlw	0
  6115     0E00  00CC               	movwf	___fladd@a+1
  6116     0E01  3000               	movlw	0
  6117     0E02  00CB               	movwf	___fladd@a
  6118     0E03                     l772:
  6119     0E03  0859               	movf	___fladd@bexp,w
  6120     0E04  0258               	subwf	___fladd@aexp,w
  6121     0E05  1803               	skipnc
  6122     0E06  2E08               	goto	u2251
  6123     0E07  2E09               	goto	u2250
  6124     0E08                     u2251:
  6125     0E08  2E2F               	goto	l2397
  6126     0E09                     u2250:
  6127     0E09                     l2363:
  6128     0E09  1F57               	btfss	___fladd@signs,6
  6129     0E0A  2E0C               	goto	u2261
  6130     0E0B  2E0D               	goto	u2260
  6131     0E0C                     u2261:
  6132     0E0C  2E11               	goto	l2367
  6133     0E0D                     u2260:
  6134     0E0D                     l2365:
  6135     0E0D  3080               	movlw	128
  6136     0E0E  00CF               	movwf	??___fladd
  6137     0E0F  084F               	movf	??___fladd,w
  6138     0E10  06D7               	xorwf	___fladd@signs,f
  6139     0E11                     l2367:
  6140     0E11  0859               	movf	___fladd@bexp,w
  6141     0E12  00DA               	movwf	___fladd@grs
  6142     0E13                     l2369:
  6143     0E13  0858               	movf	___fladd@aexp,w
  6144     0E14  00D9               	movwf	___fladd@bexp
  6145     0E15                     l2371:
  6146     0E15  085A               	movf	___fladd@grs,w
  6147     0E16  00D8               	movwf	___fladd@aexp
  6148     0E17                     l2373:
  6149     0E17  0847               	movf	___fladd@b,w
  6150     0E18  00DA               	movwf	___fladd@grs
  6151     0E19                     l2375:
  6152     0E19  084B               	movf	___fladd@a,w
  6153     0E1A  00C7               	movwf	___fladd@b
  6154     0E1B                     l2377:
  6155     0E1B  085A               	movf	___fladd@grs,w
  6156     0E1C  00CB               	movwf	___fladd@a
  6157     0E1D                     l2379:
  6158     0E1D  0848               	movf	___fladd@b+1,w
  6159     0E1E  00DA               	movwf	___fladd@grs
  6160     0E1F                     l2381:
  6161     0E1F  084C               	movf	___fladd@a+1,w
  6162     0E20  00C8               	movwf	___fladd@b+1
  6163     0E21                     l2383:
  6164     0E21  085A               	movf	___fladd@grs,w
  6165     0E22  00CC               	movwf	___fladd@a+1
  6166     0E23                     l2385:
  6167     0E23  0849               	movf	___fladd@b+2,w
  6168     0E24  00DA               	movwf	___fladd@grs
  6169     0E25                     l2387:
  6170     0E25  084D               	movf	___fladd@a+2,w
  6171     0E26  00C9               	movwf	___fladd@b+2
  6172     0E27                     l2389:
  6173     0E27  085A               	movf	___fladd@grs,w
  6174     0E28  00CD               	movwf	___fladd@a+2
  6175     0E29                     l2391:
  6176     0E29  084A               	movf	___fladd@b+3,w
  6177     0E2A  00DA               	movwf	___fladd@grs
  6178     0E2B                     l2393:
  6179     0E2B  084E               	movf	___fladd@a+3,w
  6180     0E2C  00CA               	movwf	___fladd@b+3
  6181     0E2D                     l2395:
  6182     0E2D  085A               	movf	___fladd@grs,w
  6183     0E2E  00CE               	movwf	___fladd@a+3
  6184     0E2F                     l2397:
  6185     0E2F  01DA               	clrf	___fladd@grs
  6186     0E30                     l2399:
  6187     0E30  0858               	movf	___fladd@aexp,w
  6188     0E31  00CF               	movwf	??___fladd
  6189     0E32  01D0               	clrf	??___fladd+1
  6190     0E33  0850               	movf	??___fladd+1,w
  6191     0E34  00D2               	movwf	??___fladd+3
  6192     0E35  0859               	movf	___fladd@bexp,w
  6193     0E36  024F               	subwf	??___fladd,w
  6194     0E37  00D1               	movwf	??___fladd+2
  6195     0E38  1C03               	skipc
  6196     0E39  03D2               	decf	??___fladd+3,f
  6197     0E3A  0852               	movf	??___fladd+3,w
  6198     0E3B  3A80               	xorlw	128
  6199     0E3C  00FF               	movwf	btemp+1
  6200     0E3D  3080               	movlw	128
  6201     0E3E  027F               	subwf	btemp+1,w
  6202     0E3F  1D03               	skipz
  6203     0E40  2E43               	goto	u2275
  6204     0E41  301A               	movlw	26
  6205     0E42  0251               	subwf	??___fladd+2,w
  6206     0E43                     u2275:
  6207     0E43  1C03               	skipc
  6208     0E44  2E46               	goto	u2271
  6209     0E45  2E47               	goto	u2270
  6210     0E46                     u2271:
  6211     0E46  2E7E               	goto	l2415
  6212     0E47                     u2270:
  6213     0E47                     l2401:
  6214     0E47  1283               	bcf	3,5	;RP0=0, select bank0
  6215     0E48  1303               	bcf	3,6	;RP1=0, select bank0
  6216     0E49  084A               	movf	___fladd@b+3,w
  6217     0E4A  0449               	iorwf	___fladd@b+2,w
  6218     0E4B  0448               	iorwf	___fladd@b+1,w
  6219     0E4C  0447               	iorwf	___fladd@b,w
  6220     0E4D  1D03               	skipz
  6221     0E4E  2E50               	goto	u2281
  6222     0E4F  2E52               	goto	u2280
  6223     0E50                     u2281:
  6224     0E50  3001               	movlw	1
  6225     0E51  2E53               	goto	u2290
  6226     0E52                     u2280:
  6227     0E52  3000               	movlw	0
  6228     0E53                     u2290:
  6229     0E53  00DA               	movwf	___fladd@grs
  6230     0E54  3000               	movlw	0
  6231     0E55  00CA               	movwf	___fladd@b+3
  6232     0E56  3000               	movlw	0
  6233     0E57  00C9               	movwf	___fladd@b+2
  6234     0E58  3000               	movlw	0
  6235     0E59  00C8               	movwf	___fladd@b+1
  6236     0E5A  3000               	movlw	0
  6237     0E5B  00C7               	movwf	___fladd@b
  6238     0E5C  0858               	movf	___fladd@aexp,w
  6239     0E5D  00D9               	movwf	___fladd@bexp
  6240     0E5E  2E86               	goto	l776
  6241     0E5F                     l778:
  6242     0E5F  1C5A               	btfss	___fladd@grs,0
  6243     0E60  2E62               	goto	u2301
  6244     0E61  2E63               	goto	u2300
  6245     0E62                     u2301:
  6246     0E62  2E6A               	goto	l2405
  6247     0E63                     u2300:
  6248     0E63                     l2403:
  6249     0E63  085A               	movf	___fladd@grs,w
  6250     0E64  00CF               	movwf	??___fladd
  6251     0E65  1003               	clrc
  6252     0E66  0C4F               	rrf	??___fladd,w
  6253     0E67  3801               	iorlw	1
  6254     0E68  00DA               	movwf	___fladd@grs
  6255     0E69  2E6C               	goto	l2407
  6256     0E6A                     l2405:
  6257     0E6A  1003               	clrc
  6258     0E6B  0CDA               	rrf	___fladd@grs,f
  6259     0E6C                     l2407:
  6260     0E6C  1C47               	btfss	___fladd@b,0
  6261     0E6D  2E6F               	goto	u2311
  6262     0E6E  2E70               	goto	u2310
  6263     0E6F                     u2311:
  6264     0E6F  2E71               	goto	l2411
  6265     0E70                     u2310:
  6266     0E70                     l2409:
  6267     0E70  17DA               	bsf	___fladd@grs,7
  6268     0E71                     l2411:
  6269     0E71  3001               	movlw	1
  6270     0E72  00CF               	movwf	??___fladd
  6271     0E73                     u2325:
  6272     0E73  0D4A               	rlf	___fladd@b+3,w
  6273     0E74  0CCA               	rrf	___fladd@b+3,f
  6274     0E75  0CC9               	rrf	___fladd@b+2,f
  6275     0E76  0CC8               	rrf	___fladd@b+1,f
  6276     0E77  0CC7               	rrf	___fladd@b,f
  6277     0E78  0BCF               	decfsz	??___fladd& (0+127),f
  6278     0E79  2E73               	goto	u2325
  6279     0E7A                     l2413:
  6280     0E7A  3001               	movlw	1
  6281     0E7B  00CF               	movwf	??___fladd
  6282     0E7C  084F               	movf	??___fladd,w
  6283     0E7D  07D9               	addwf	___fladd@bexp,f
  6284     0E7E                     l2415:
  6285     0E7E  1283               	bcf	3,5	;RP0=0, select bank0
  6286     0E7F  1303               	bcf	3,6	;RP1=0, select bank0
  6287     0E80  0858               	movf	___fladd@aexp,w
  6288     0E81  0259               	subwf	___fladd@bexp,w
  6289     0E82  1C03               	skipc
  6290     0E83  2E85               	goto	u2331
  6291     0E84  2E86               	goto	u2330
  6292     0E85                     u2331:
  6293     0E85  2E5F               	goto	l778
  6294     0E86                     u2330:
  6295     0E86                     l776:
  6296     0E86  1B57               	btfsc	___fladd@signs,6
  6297     0E87  2E89               	goto	u2341
  6298     0E88  2E8A               	goto	u2340
  6299     0E89                     u2341:
  6300     0E89  2ED3               	goto	l2441
  6301     0E8A                     u2340:
  6302     0E8A                     l2417:
  6303     0E8A  0859               	movf	___fladd@bexp,w
  6304     0E8B  1D03               	btfss	3,2
  6305     0E8C  2E8E               	goto	u2351
  6306     0E8D  2E8F               	goto	u2350
  6307     0E8E                     u2351:
  6308     0E8E  2E98               	goto	l2423
  6309     0E8F                     u2350:
  6310     0E8F                     l2419:
  6311     0E8F  3000               	movlw	0
  6312     0E90  00CA               	movwf	?___fladd+3
  6313     0E91  3000               	movlw	0
  6314     0E92  00C9               	movwf	?___fladd+2
  6315     0E93  3000               	movlw	0
  6316     0E94  00C8               	movwf	?___fladd+1
  6317     0E95  3000               	movlw	0
  6318     0E96  00C7               	movwf	?___fladd
  6319     0E97  2FFF               	goto	l785
  6320     0E98                     l2423:
  6321     0E98  084B               	movf	___fladd@a,w
  6322     0E99  07C7               	addwf	___fladd@b,f
  6323     0E9A  084C               	movf	___fladd@a+1,w
  6324     0E9B  1103               	clrz
  6325     0E9C  1803               	skipnc
  6326     0E9D  3E01               	addlw	1
  6327     0E9E  1903               	skipnz
  6328     0E9F  2EA1               	goto	u2361
  6329     0EA0  07C8               	addwf	___fladd@b+1,f
  6330     0EA1                     u2361:
  6331     0EA1  084D               	movf	___fladd@a+2,w
  6332     0EA2  1103               	clrz
  6333     0EA3  1803               	skipnc
  6334     0EA4  3E01               	addlw	1
  6335     0EA5  1903               	skipnz
  6336     0EA6  2EA8               	goto	u2362
  6337     0EA7  07C9               	addwf	___fladd@b+2,f
  6338     0EA8                     u2362:
  6339     0EA8  084E               	movf	___fladd@a+3,w
  6340     0EA9  1103               	clrz
  6341     0EAA  1803               	skipnc
  6342     0EAB  3E01               	addlw	1
  6343     0EAC  1903               	skipnz
  6344     0EAD  2EAF               	goto	u2363
  6345     0EAE  07CA               	addwf	___fladd@b+3,f
  6346     0EAF                     u2363:
  6347     0EAF                     l2425:
  6348     0EAF  1C4A               	btfss	___fladd@b+3,0
  6349     0EB0  2EB2               	goto	u2371
  6350     0EB1  2EB3               	goto	u2370
  6351     0EB2                     u2371:
  6352     0EB2  2F87               	goto	l2475
  6353     0EB3                     u2370:
  6354     0EB3                     l2427:
  6355     0EB3  1C5A               	btfss	___fladd@grs,0
  6356     0EB4  2EB6               	goto	u2381
  6357     0EB5  2EB7               	goto	u2380
  6358     0EB6                     u2381:
  6359     0EB6  2EBE               	goto	l2431
  6360     0EB7                     u2380:
  6361     0EB7                     l2429:
  6362     0EB7  085A               	movf	___fladd@grs,w
  6363     0EB8  00CF               	movwf	??___fladd
  6364     0EB9  1003               	clrc
  6365     0EBA  0C4F               	rrf	??___fladd,w
  6366     0EBB  3801               	iorlw	1
  6367     0EBC  00DA               	movwf	___fladd@grs
  6368     0EBD  2EC0               	goto	l2433
  6369     0EBE                     l2431:
  6370     0EBE  1003               	clrc
  6371     0EBF  0CDA               	rrf	___fladd@grs,f
  6372     0EC0                     l2433:
  6373     0EC0  1C47               	btfss	___fladd@b,0
  6374     0EC1  2EC3               	goto	u2391
  6375     0EC2  2EC4               	goto	u2390
  6376     0EC3                     u2391:
  6377     0EC3  2EC5               	goto	l2437
  6378     0EC4                     u2390:
  6379     0EC4                     l2435:
  6380     0EC4  17DA               	bsf	___fladd@grs,7
  6381     0EC5                     l2437:
  6382     0EC5  3001               	movlw	1
  6383     0EC6  00CF               	movwf	??___fladd
  6384     0EC7                     u2405:
  6385     0EC7  0D4A               	rlf	___fladd@b+3,w
  6386     0EC8  0CCA               	rrf	___fladd@b+3,f
  6387     0EC9  0CC9               	rrf	___fladd@b+2,f
  6388     0ECA  0CC8               	rrf	___fladd@b+1,f
  6389     0ECB  0CC7               	rrf	___fladd@b,f
  6390     0ECC  0BCF               	decfsz	??___fladd& (0+127),f
  6391     0ECD  2EC7               	goto	u2405
  6392     0ECE                     l2439:
  6393     0ECE  3001               	movlw	1
  6394     0ECF  00CF               	movwf	??___fladd
  6395     0ED0  084F               	movf	??___fladd,w
  6396     0ED1  07D9               	addwf	___fladd@bexp,f
  6397     0ED2  2F87               	goto	l2475
  6398     0ED3                     l2441:
  6399     0ED3  084A               	movf	___fladd@b+3,w
  6400     0ED4  3A80               	xorlw	128
  6401     0ED5  00FF               	movwf	btemp+1
  6402     0ED6  084E               	movf	___fladd@a+3,w
  6403     0ED7  3A80               	xorlw	128
  6404     0ED8  027F               	subwf	btemp+1,w
  6405     0ED9  1D03               	skipz
  6406     0EDA  2EE5               	goto	u2413
  6407     0EDB  084D               	movf	___fladd@a+2,w
  6408     0EDC  0249               	subwf	___fladd@b+2,w
  6409     0EDD  1D03               	skipz
  6410     0EDE  2EE5               	goto	u2413
  6411     0EDF  084C               	movf	___fladd@a+1,w
  6412     0EE0  0248               	subwf	___fladd@b+1,w
  6413     0EE1  1D03               	skipz
  6414     0EE2  2EE5               	goto	u2413
  6415     0EE3  084B               	movf	___fladd@a,w
  6416     0EE4  0247               	subwf	___fladd@b,w
  6417     0EE5                     u2413:
  6418     0EE5  1803               	skipnc
  6419     0EE6  2EE8               	goto	u2411
  6420     0EE7  2EE9               	goto	u2410
  6421     0EE8                     u2411:
  6422     0EE8  2F41               	goto	l2451
  6423     0EE9                     u2410:
  6424     0EE9                     l2443:
  6425     0EE9  30FF               	movlw	255
  6426     0EEA  00CF               	movwf	??___fladd
  6427     0EEB  30FF               	movlw	255
  6428     0EEC  00D0               	movwf	??___fladd+1
  6429     0EED  30FF               	movlw	255
  6430     0EEE  00D1               	movwf	??___fladd+2
  6431     0EEF  30FF               	movlw	255
  6432     0EF0  00D2               	movwf	??___fladd+3
  6433     0EF1  084B               	movf	___fladd@a,w
  6434     0EF2  00D3               	movwf	??___fladd+4
  6435     0EF3  084C               	movf	___fladd@a+1,w
  6436     0EF4  00D4               	movwf	??___fladd+5
  6437     0EF5  084D               	movf	___fladd@a+2,w
  6438     0EF6  00D5               	movwf	??___fladd+6
  6439     0EF7  084E               	movf	___fladd@a+3,w
  6440     0EF8  00D6               	movwf	??___fladd+7
  6441     0EF9  0847               	movf	___fladd@b,w
  6442     0EFA  02D3               	subwf	??___fladd+4,f
  6443     0EFB  0848               	movf	___fladd@b+1,w
  6444     0EFC  1C03               	skipc
  6445     0EFD  0F48               	incfsz	___fladd@b+1,w
  6446     0EFE  2F00               	goto	u2421
  6447     0EFF  2F01               	goto	u2422
  6448     0F00                     u2421:
  6449     0F00  02D4               	subwf	??___fladd+5,f
  6450     0F01                     u2422:
  6451     0F01  0849               	movf	___fladd@b+2,w
  6452     0F02  1C03               	skipc
  6453     0F03  0F49               	incfsz	___fladd@b+2,w
  6454     0F04  2F06               	goto	u2423
  6455     0F05  2F07               	goto	u2424
  6456     0F06                     u2423:
  6457     0F06  02D5               	subwf	??___fladd+6,f
  6458     0F07                     u2424:
  6459     0F07  084A               	movf	___fladd@b+3,w
  6460     0F08  1C03               	skipc
  6461     0F09  0F4A               	incfsz	___fladd@b+3,w
  6462     0F0A  2F0C               	goto	u2425
  6463     0F0B  2F0D               	goto	u2426
  6464     0F0C                     u2425:
  6465     0F0C  02D6               	subwf	??___fladd+7,f
  6466     0F0D                     u2426:
  6467     0F0D  0853               	movf	??___fladd+4,w
  6468     0F0E  07CF               	addwf	??___fladd,f
  6469     0F0F  0854               	movf	??___fladd+5,w
  6470     0F10  1803               	skipnc
  6471     0F11  0F54               	incfsz	??___fladd+5,w
  6472     0F12  2F14               	goto	u2430
  6473     0F13  2F15               	goto	u2431
  6474     0F14                     u2430:
  6475     0F14  07D0               	addwf	??___fladd+1,f
  6476     0F15                     u2431:
  6477     0F15  0855               	movf	??___fladd+6,w
  6478     0F16  1803               	skipnc
  6479     0F17  0F55               	incfsz	??___fladd+6,w
  6480     0F18  2F1A               	goto	u2432
  6481     0F19  2F1B               	goto	u2433
  6482     0F1A                     u2432:
  6483     0F1A  07D1               	addwf	??___fladd+2,f
  6484     0F1B                     u2433:
  6485     0F1B  0856               	movf	??___fladd+7,w
  6486     0F1C  1803               	skipnc
  6487     0F1D  0A56               	incf	??___fladd+7,w
  6488     0F1E  07D2               	addwf	??___fladd+3,f
  6489     0F1F  0852               	movf	??___fladd+3,w
  6490     0F20  00CA               	movwf	___fladd@b+3
  6491     0F21  0851               	movf	??___fladd+2,w
  6492     0F22  00C9               	movwf	___fladd@b+2
  6493     0F23  0850               	movf	??___fladd+1,w
  6494     0F24  00C8               	movwf	___fladd@b+1
  6495     0F25  084F               	movf	??___fladd,w
  6496     0F26  00C7               	movwf	___fladd@b
  6497     0F27                     l2445:
  6498     0F27  3080               	movlw	128
  6499     0F28  00CF               	movwf	??___fladd
  6500     0F29  084F               	movf	??___fladd,w
  6501     0F2A  06D7               	xorwf	___fladd@signs,f
  6502     0F2B  09DA               	comf	___fladd@grs,f
  6503     0F2C  0ADA               	incf	___fladd@grs,f
  6504     0F2D                     l2447:
  6505     0F2D  085A               	movf	___fladd@grs,w
  6506     0F2E  1D03               	btfss	3,2
  6507     0F2F  2F31               	goto	u2441
  6508     0F30  2F32               	goto	u2440
  6509     0F31                     u2441:
  6510     0F31  2F4F               	goto	l793
  6511     0F32                     u2440:
  6512     0F32                     l2449:
  6513     0F32  3001               	movlw	1
  6514     0F33  07C7               	addwf	___fladd@b,f
  6515     0F34  3000               	movlw	0
  6516     0F35  1803               	skipnc
  6517     0F36  3001               	movlw	1
  6518     0F37  07C8               	addwf	___fladd@b+1,f
  6519     0F38  3000               	movlw	0
  6520     0F39  1803               	skipnc
  6521     0F3A  3001               	movlw	1
  6522     0F3B  07C9               	addwf	___fladd@b+2,f
  6523     0F3C  3000               	movlw	0
  6524     0F3D  1803               	skipnc
  6525     0F3E  3001               	movlw	1
  6526     0F3F  07CA               	addwf	___fladd@b+3,f
  6527     0F40  2F4F               	goto	l793
  6528     0F41                     l2451:
  6529     0F41  084B               	movf	___fladd@a,w
  6530     0F42  02C7               	subwf	___fladd@b,f
  6531     0F43  084C               	movf	___fladd@a+1,w
  6532     0F44  1C03               	skipc
  6533     0F45  0F4C               	incfsz	___fladd@a+1,w
  6534     0F46  02C8               	subwf	___fladd@b+1,f
  6535     0F47  084D               	movf	___fladd@a+2,w
  6536     0F48  1C03               	skipc
  6537     0F49  0F4D               	incfsz	___fladd@a+2,w
  6538     0F4A  02C9               	subwf	___fladd@b+2,f
  6539     0F4B  084E               	movf	___fladd@a+3,w
  6540     0F4C  1C03               	skipc
  6541     0F4D  0F4E               	incfsz	___fladd@a+3,w
  6542     0F4E  02CA               	subwf	___fladd@b+3,f
  6543     0F4F                     l793:
  6544     0F4F  084A               	movf	___fladd@b+3,w
  6545     0F50  0449               	iorwf	___fladd@b+2,w
  6546     0F51  0448               	iorwf	___fladd@b+1,w
  6547     0F52  0447               	iorwf	___fladd@b,w
  6548     0F53  1D03               	skipz
  6549     0F54  2F56               	goto	u2451
  6550     0F55  2F57               	goto	u2450
  6551     0F56                     u2451:
  6552     0F56  2F83               	goto	l2473
  6553     0F57                     u2450:
  6554     0F57                     l2453:
  6555     0F57  085A               	movf	___fladd@grs,w
  6556     0F58  1D03               	btfss	3,2
  6557     0F59  2F5B               	goto	u2461
  6558     0F5A  2F5C               	goto	u2460
  6559     0F5B                     u2461:
  6560     0F5B  2F83               	goto	l2473
  6561     0F5C                     u2460:
  6562     0F5C                     l2455:
  6563     0F5C  3000               	movlw	0
  6564     0F5D  00CA               	movwf	?___fladd+3
  6565     0F5E  3000               	movlw	0
  6566     0F5F  00C9               	movwf	?___fladd+2
  6567     0F60  3000               	movlw	0
  6568     0F61  00C8               	movwf	?___fladd+1
  6569     0F62  3000               	movlw	0
  6570     0F63  00C7               	movwf	?___fladd
  6571     0F64  2FFF               	goto	l785
  6572     0F65                     l2459:
  6573     0F65  3001               	movlw	1
  6574     0F66  00CF               	movwf	??___fladd
  6575     0F67                     u2475:
  6576     0F67  1003               	clrc
  6577     0F68  0DC7               	rlf	___fladd@b,f
  6578     0F69  0DC8               	rlf	___fladd@b+1,f
  6579     0F6A  0DC9               	rlf	___fladd@b+2,f
  6580     0F6B  0DCA               	rlf	___fladd@b+3,f
  6581     0F6C  0BCF               	decfsz	??___fladd,f
  6582     0F6D  2F67               	goto	u2475
  6583     0F6E                     l2461:
  6584     0F6E  1FDA               	btfss	___fladd@grs,7
  6585     0F6F  2F71               	goto	u2481
  6586     0F70  2F72               	goto	u2480
  6587     0F71                     u2481:
  6588     0F71  2F73               	goto	l797
  6589     0F72                     u2480:
  6590     0F72                     l2463:
  6591     0F72  1447               	bsf	___fladd@b,0
  6592     0F73                     l797:
  6593     0F73  1C5A               	btfss	___fladd@grs,0
  6594     0F74  2F76               	goto	u2491
  6595     0F75  2F77               	goto	u2490
  6596     0F76                     u2491:
  6597     0F76  2F7A               	goto	l2467
  6598     0F77                     u2490:
  6599     0F77                     l2465:
  6600     0F77  1403               	setc
  6601     0F78  0DDA               	rlf	___fladd@grs,f
  6602     0F79  2F7C               	goto	l2469
  6603     0F7A                     l2467:
  6604     0F7A  1003               	clrc
  6605     0F7B  0DDA               	rlf	___fladd@grs,f
  6606     0F7C                     l2469:
  6607     0F7C  0859               	movf	___fladd@bexp,w
  6608     0F7D  1903               	btfsc	3,2
  6609     0F7E  2F80               	goto	u2501
  6610     0F7F  2F81               	goto	u2500
  6611     0F80                     u2501:
  6612     0F80  2F83               	goto	l2473
  6613     0F81                     u2500:
  6614     0F81                     l2471:
  6615     0F81  3001               	movlw	1
  6616     0F82  02D9               	subwf	___fladd@bexp,f
  6617     0F83                     l2473:
  6618     0F83  1FC9               	btfss	___fladd@b+2,7
  6619     0F84  2F86               	goto	u2511
  6620     0F85  2F87               	goto	u2510
  6621     0F86                     u2511:
  6622     0F86  2F65               	goto	l2459
  6623     0F87                     u2510:
  6624     0F87                     l2475:
  6625     0F87  01D8               	clrf	___fladd@aexp
  6626     0F88                     l2477:
  6627     0F88  1FDA               	btfss	___fladd@grs,7
  6628     0F89  2F8B               	goto	u2521
  6629     0F8A  2F8C               	goto	u2520
  6630     0F8B                     u2521:
  6631     0F8B  2F9A               	goto	l2485
  6632     0F8C                     u2520:
  6633     0F8C                     l2479:
  6634     0F8C  085A               	movf	___fladd@grs,w
  6635     0F8D  397F               	andlw	127
  6636     0F8E  1903               	btfsc	3,2
  6637     0F8F  2F91               	goto	u2531
  6638     0F90  2F92               	goto	u2530
  6639     0F91                     u2531:
  6640     0F91  2F95               	goto	l803
  6641     0F92                     u2530:
  6642     0F92                     l2481:
  6643     0F92  01D8               	clrf	___fladd@aexp
  6644     0F93  0AD8               	incf	___fladd@aexp,f
  6645     0F94  2F9A               	goto	l2485
  6646     0F95                     l803:
  6647     0F95  1C47               	btfss	___fladd@b,0
  6648     0F96  2F98               	goto	u2541
  6649     0F97  2F99               	goto	u2540
  6650     0F98                     u2541:
  6651     0F98  2F9A               	goto	l2485
  6652     0F99                     u2540:
  6653     0F99  2F92               	goto	l2481
  6654     0F9A                     l2485:
  6655     0F9A  0858               	movf	___fladd@aexp,w
  6656     0F9B  1903               	btfsc	3,2
  6657     0F9C  2F9E               	goto	u2551
  6658     0F9D  2F9F               	goto	u2550
  6659     0F9E                     u2551:
  6660     0F9E  2FD3               	goto	l806
  6661     0F9F                     u2550:
  6662     0F9F                     l2487:
  6663     0F9F  3001               	movlw	1
  6664     0FA0  07C7               	addwf	___fladd@b,f
  6665     0FA1  3000               	movlw	0
  6666     0FA2  1803               	skipnc
  6667     0FA3  3001               	movlw	1
  6668     0FA4  07C8               	addwf	___fladd@b+1,f
  6669     0FA5  3000               	movlw	0
  6670     0FA6  1803               	skipnc
  6671     0FA7  3001               	movlw	1
  6672     0FA8  07C9               	addwf	___fladd@b+2,f
  6673     0FA9  3000               	movlw	0
  6674     0FAA  1803               	skipnc
  6675     0FAB  3001               	movlw	1
  6676     0FAC  07CA               	addwf	___fladd@b+3,f
  6677     0FAD                     l2489:
  6678     0FAD  1C4A               	btfss	___fladd@b+3,0
  6679     0FAE  2FB0               	goto	u2561
  6680     0FAF  2FB1               	goto	u2560
  6681     0FB0                     u2561:
  6682     0FB0  2FD3               	goto	l806
  6683     0FB1                     u2560:
  6684     0FB1                     l2491:
  6685     0FB1  0847               	movf	___fladd@b,w
  6686     0FB2  00CF               	movwf	??___fladd
  6687     0FB3  0848               	movf	___fladd@b+1,w
  6688     0FB4  00D0               	movwf	??___fladd+1
  6689     0FB5  0849               	movf	___fladd@b+2,w
  6690     0FB6  00D1               	movwf	??___fladd+2
  6691     0FB7  084A               	movf	___fladd@b+3,w
  6692     0FB8  00D2               	movwf	??___fladd+3
  6693     0FB9  3001               	movlw	1
  6694     0FBA  00D3               	movwf	??___fladd+4
  6695     0FBB                     u2575:
  6696     0FBB  0D52               	rlf	??___fladd+3,w
  6697     0FBC  0CD2               	rrf	??___fladd+3,f
  6698     0FBD  0CD1               	rrf	??___fladd+2,f
  6699     0FBE  0CD0               	rrf	??___fladd+1,f
  6700     0FBF  0CCF               	rrf	??___fladd,f
  6701     0FC0                     u2570:
  6702     0FC0  0BD3               	decfsz	??___fladd+4,f
  6703     0FC1  2FBB               	goto	u2575
  6704     0FC2  0852               	movf	??___fladd+3,w
  6705     0FC3  00CA               	movwf	___fladd@b+3
  6706     0FC4  0851               	movf	??___fladd+2,w
  6707     0FC5  00C9               	movwf	___fladd@b+2
  6708     0FC6  0850               	movf	??___fladd+1,w
  6709     0FC7  00C8               	movwf	___fladd@b+1
  6710     0FC8  084F               	movf	??___fladd,w
  6711     0FC9  00C7               	movwf	___fladd@b
  6712     0FCA  0A59               	incf	___fladd@bexp,w
  6713     0FCB  1903               	btfsc	3,2
  6714     0FCC  2FCE               	goto	u2581
  6715     0FCD  2FCF               	goto	u2580
  6716     0FCE                     u2581:
  6717     0FCE  2FD3               	goto	l806
  6718     0FCF                     u2580:
  6719     0FCF                     l2493:
  6720     0FCF  3001               	movlw	1
  6721     0FD0  00CF               	movwf	??___fladd
  6722     0FD1  084F               	movf	??___fladd,w
  6723     0FD2  07D9               	addwf	___fladd@bexp,f
  6724     0FD3                     l806:
  6725     0FD3  0A59               	incf	___fladd@bexp,w
  6726     0FD4  1903               	btfsc	3,2
  6727     0FD5  2FD7               	goto	u2591
  6728     0FD6  2FD8               	goto	u2590
  6729     0FD7                     u2591:
  6730     0FD7  2FDD               	goto	l2497
  6731     0FD8                     u2590:
  6732     0FD8                     l2495:
  6733     0FD8  0859               	movf	___fladd@bexp,w
  6734     0FD9  1D03               	btfss	3,2
  6735     0FDA  2FDC               	goto	u2601
  6736     0FDB  2FDD               	goto	u2600
  6737     0FDC                     u2601:
  6738     0FDC  2FEB               	goto	l2503
  6739     0FDD                     u2600:
  6740     0FDD                     l2497:
  6741     0FDD  3000               	movlw	0
  6742     0FDE  00CA               	movwf	___fladd@b+3
  6743     0FDF  3000               	movlw	0
  6744     0FE0  00C9               	movwf	___fladd@b+2
  6745     0FE1  3000               	movlw	0
  6746     0FE2  00C8               	movwf	___fladd@b+1
  6747     0FE3  3000               	movlw	0
  6748     0FE4  00C7               	movwf	___fladd@b
  6749     0FE5                     l2499:
  6750     0FE5  0859               	movf	___fladd@bexp,w
  6751     0FE6  1D03               	btfss	3,2
  6752     0FE7  2FE9               	goto	u2611
  6753     0FE8  2FEA               	goto	u2610
  6754     0FE9                     u2611:
  6755     0FE9  2FEB               	goto	l2503
  6756     0FEA                     u2610:
  6757     0FEA                     l2501:
  6758     0FEA  01D7               	clrf	___fladd@signs
  6759     0FEB                     l2503:
  6760     0FEB  1C59               	btfss	___fladd@bexp,0
  6761     0FEC  2FEE               	goto	u2621
  6762     0FED  2FEF               	goto	u2620
  6763     0FEE                     u2621:
  6764     0FEE  2FF1               	goto	l2507
  6765     0FEF                     u2620:
  6766     0FEF                     l2505:
  6767     0FEF  17C9               	bsf	___fladd@b+2,7
  6768     0FF0  2FF5               	goto	l814
  6769     0FF1                     l2507:
  6770     0FF1  307F               	movlw	127
  6771     0FF2  00CF               	movwf	??___fladd
  6772     0FF3  084F               	movf	??___fladd,w
  6773     0FF4  05C9               	andwf	___fladd@b+2,f
  6774     0FF5                     l814:
  6775     0FF5  0859               	movf	___fladd@bexp,w
  6776     0FF6  00CF               	movwf	??___fladd
  6777     0FF7  1003               	clrc
  6778     0FF8  0C4F               	rrf	??___fladd,w
  6779     0FF9  00CA               	movwf	___fladd@b+3
  6780     0FFA                     l2509:
  6781     0FFA  1FD7               	btfss	___fladd@signs,7
  6782     0FFB  2FFD               	goto	u2631
  6783     0FFC  2FFE               	goto	u2630
  6784     0FFD                     u2631:
  6785     0FFD  2FFF               	goto	l815
  6786     0FFE                     u2630:
  6787     0FFE                     l2511:
  6788     0FFE  17CA               	bsf	___fladd@b+3,7
  6789     0FFF                     l815:
  6790     0FFF                     l785:
  6791     0FFF  0008               	return
  6792     1000                     __end_of___fladd:
  6793                           
  6794                           	psect	text25
  6795     0800                     __ptext25:	
  6796 ;; *************** function ___flneg *****************
  6797 ;; Defined at:
  6798 ;;		line 15 in file "C:\Program Files\Microchip\xc8\v2.40\pic\sources\c90\common\flneg.c"
  6799 ;; Parameters:    Size  Location     Type
  6800 ;;  f1              4    0[COMMON] unsigned char 
  6801 ;; Auto vars:     Size  Location     Type
  6802 ;;		None
  6803 ;; Return value:  Size  Location     Type
  6804 ;;                  4    0[COMMON] unsigned char 
  6805 ;; Registers used:
  6806 ;;		wreg
  6807 ;; Tracked objects:
  6808 ;;		On entry : 0/0
  6809 ;;		On exit  : 0/0
  6810 ;;		Unchanged: 0/0
  6811 ;; Data sizes:     COMMON   BANK0   BANK1   BANK3   BANK2
  6812 ;;      Params:         4       0       0       0       0
  6813 ;;      Locals:         0       0       0       0       0
  6814 ;;      Temps:          0       0       0       0       0
  6815 ;;      Totals:         4       0       0       0       0
  6816 ;;Total ram usage:        4 bytes
  6817 ;; Hardware stack levels used: 1
  6818 ;; This function calls:
  6819 ;;		Nothing
  6820 ;; This function is called by:
  6821 ;;		_floattostr
  6822 ;; This function uses a non-reentrant model
  6823 ;;
  6824                           
  6825     0800                     ___flneg:	
  6826                           ;psect for function ___flneg
  6827                           
  6828     0800                     l2595:	
  6829                           ;incstack = 0
  6830                           ; Regs used in ___flneg: [wreg]
  6831                           
  6832     0800  0873               	movf	___flneg@f1+3,w
  6833     0801  0472               	iorwf	___flneg@f1+2,w
  6834     0802  0471               	iorwf	___flneg@f1+1,w
  6835     0803  0470               	iorwf	___flneg@f1,w
  6836     0804  1903               	skipnz
  6837     0805  2807               	goto	u2831
  6838     0806  2808               	goto	u2830
  6839     0807                     u2831:
  6840     0807  280A               	goto	l2599
  6841     0808                     u2830:
  6842     0808                     l2597:
  6843     0808  3080               	movlw	128
  6844     0809  06F3               	xorwf	___flneg@f1+3,f
  6845     080A                     l2599:
  6846     080A                     l661:
  6847     080A  0008               	return
  6848     080B                     __end_of___flneg:
  6849                           
  6850                           	psect	text26
  6851     0495                     __ptext26:	
  6852 ;; *************** function ___flmul *****************
  6853 ;; Defined at:
  6854 ;;		line 8 in file "C:\Program Files\Microchip\xc8\v2.40\pic\sources\c90\common\sprcmul.c"
  6855 ;; Parameters:    Size  Location     Type
  6856 ;;  b               4   13[BANK0 ] unsigned char 
  6857 ;;  a               4   17[BANK0 ] unsigned char 
  6858 ;; Auto vars:     Size  Location     Type
  6859 ;;  prod            4   33[BANK0 ] struct .
  6860 ;;  grs             4   27[BANK0 ] unsigned long 
  6861 ;;  temp            2   37[BANK0 ] struct .
  6862 ;;  bexp            1   32[BANK0 ] unsigned char 
  6863 ;;  aexp            1   31[BANK0 ] unsigned char 
  6864 ;;  sign            1   26[BANK0 ] unsigned char 
  6865 ;; Return value:  Size  Location     Type
  6866 ;;                  4   13[BANK0 ] unsigned char 
  6867 ;; Registers used:
  6868 ;;		wreg, status,2, status,0, btemp+1, pclath, cstack
  6869 ;; Tracked objects:
  6870 ;;		On entry : 0/0
  6871 ;;		On exit  : 0/0
  6872 ;;		Unchanged: 0/0
  6873 ;; Data sizes:     COMMON   BANK0   BANK1   BANK3   BANK2
  6874 ;;      Params:         0       8       0       0       0
  6875 ;;      Locals:         0      13       0       0       0
  6876 ;;      Temps:          0       5       0       0       0
  6877 ;;      Totals:         0      26       0       0       0
  6878 ;;Total ram usage:       26 bytes
  6879 ;; Hardware stack levels used: 1
  6880 ;; Hardware stack levels required when called: 1
  6881 ;; This function calls:
  6882 ;;		__Umul8_16
  6883 ;; This function is called by:
  6884 ;;		_floattostr
  6885 ;;		_AHT10_Read
  6886 ;; This function uses a non-reentrant model
  6887 ;;
  6888                           
  6889     0495                     ___flmul:	
  6890                           ;psect for function ___flmul
  6891                           
  6892     0495                     l2835:	
  6893                           ;incstack = 0
  6894                           ; Regs used in ___flmul: [wreg+status,2+status,0+btemp+1+pclath+cstack]
  6895                           
  6896     0495  1283               	bcf	3,5	;RP0=0, select bank0
  6897     0496  1303               	bcf	3,6	;RP1=0, select bank0
  6898     0497  0830               	movf	___flmul@b+3,w
  6899     0498  3980               	andlw	128
  6900     0499  00BA               	movwf	___flmul@sign
  6901     049A                     l2837:
  6902     049A  0830               	movf	___flmul@b+3,w
  6903     049B  00B5               	movwf	??___flmul
  6904     049C  0735               	addwf	??___flmul,w
  6905     049D  00C0               	movwf	___flmul@bexp
  6906     049E                     l2839:
  6907     049E  1FAF               	btfss	___flmul@b+2,7
  6908     049F  2CA1               	goto	u3371
  6909     04A0  2CA2               	goto	u3370
  6910     04A1                     u3371:
  6911     04A1  2CA3               	goto	l2843
  6912     04A2                     u3370:
  6913     04A2                     l2841:
  6914     04A2  1440               	bsf	___flmul@bexp,0
  6915     04A3                     l2843:
  6916     04A3  0840               	movf	___flmul@bexp,w
  6917     04A4  1903               	btfsc	3,2
  6918     04A5  2CA7               	goto	u3381
  6919     04A6  2CA8               	goto	u3380
  6920     04A7                     u3381:
  6921     04A7  2CB7               	goto	l2851
  6922     04A8                     u3380:
  6923     04A8                     l2845:
  6924     04A8  0A40               	incf	___flmul@bexp,w
  6925     04A9  1D03               	btfss	3,2
  6926     04AA  2CAC               	goto	u3391
  6927     04AB  2CAD               	goto	u3390
  6928     04AC                     u3391:
  6929     04AC  2CB5               	goto	l2849
  6930     04AD                     u3390:
  6931     04AD                     l2847:
  6932     04AD  3000               	movlw	0
  6933     04AE  00B0               	movwf	___flmul@b+3
  6934     04AF  3000               	movlw	0
  6935     04B0  00AF               	movwf	___flmul@b+2
  6936     04B1  3000               	movlw	0
  6937     04B2  00AE               	movwf	___flmul@b+1
  6938     04B3  3000               	movlw	0
  6939     04B4  00AD               	movwf	___flmul@b
  6940     04B5                     l2849:
  6941     04B5  17AF               	bsf	___flmul@b+2,7
  6942     04B6  2CBF               	goto	l2853
  6943     04B7                     l2851:
  6944     04B7  3000               	movlw	0
  6945     04B8  00B0               	movwf	___flmul@b+3
  6946     04B9  3000               	movlw	0
  6947     04BA  00AF               	movwf	___flmul@b+2
  6948     04BB  3000               	movlw	0
  6949     04BC  00AE               	movwf	___flmul@b+1
  6950     04BD  3000               	movlw	0
  6951     04BE  00AD               	movwf	___flmul@b
  6952     04BF                     l2853:
  6953     04BF  0834               	movf	___flmul@a+3,w
  6954     04C0  3980               	andlw	128
  6955     04C1  00B5               	movwf	??___flmul
  6956     04C2  0835               	movf	??___flmul,w
  6957     04C3  06BA               	xorwf	___flmul@sign,f
  6958     04C4                     l2855:
  6959     04C4  0834               	movf	___flmul@a+3,w
  6960     04C5  00B5               	movwf	??___flmul
  6961     04C6  0735               	addwf	??___flmul,w
  6962     04C7  00BF               	movwf	___flmul@aexp
  6963     04C8                     l2857:
  6964     04C8  1FB3               	btfss	___flmul@a+2,7
  6965     04C9  2CCB               	goto	u3401
  6966     04CA  2CCC               	goto	u3400
  6967     04CB                     u3401:
  6968     04CB  2CCD               	goto	l2861
  6969     04CC                     u3400:
  6970     04CC                     l2859:
  6971     04CC  143F               	bsf	___flmul@aexp,0
  6972     04CD                     l2861:
  6973     04CD  083F               	movf	___flmul@aexp,w
  6974     04CE  1903               	btfsc	3,2
  6975     04CF  2CD1               	goto	u3411
  6976     04D0  2CD2               	goto	u3410
  6977     04D1                     u3411:
  6978     04D1  2CE1               	goto	l2869
  6979     04D2                     u3410:
  6980     04D2                     l2863:
  6981     04D2  0A3F               	incf	___flmul@aexp,w
  6982     04D3  1D03               	btfss	3,2
  6983     04D4  2CD6               	goto	u3421
  6984     04D5  2CD7               	goto	u3420
  6985     04D6                     u3421:
  6986     04D6  2CDF               	goto	l2867
  6987     04D7                     u3420:
  6988     04D7                     l2865:
  6989     04D7  3000               	movlw	0
  6990     04D8  00B4               	movwf	___flmul@a+3
  6991     04D9  3000               	movlw	0
  6992     04DA  00B3               	movwf	___flmul@a+2
  6993     04DB  3000               	movlw	0
  6994     04DC  00B2               	movwf	___flmul@a+1
  6995     04DD  3000               	movlw	0
  6996     04DE  00B1               	movwf	___flmul@a
  6997     04DF                     l2867:
  6998     04DF  17B3               	bsf	___flmul@a+2,7
  6999     04E0  2CE9               	goto	l2871
  7000     04E1                     l2869:
  7001     04E1  3000               	movlw	0
  7002     04E2  00B4               	movwf	___flmul@a+3
  7003     04E3  3000               	movlw	0
  7004     04E4  00B3               	movwf	___flmul@a+2
  7005     04E5  3000               	movlw	0
  7006     04E6  00B2               	movwf	___flmul@a+1
  7007     04E7  3000               	movlw	0
  7008     04E8  00B1               	movwf	___flmul@a
  7009     04E9                     l2871:
  7010     04E9  083F               	movf	___flmul@aexp,w
  7011     04EA  1903               	btfsc	3,2
  7012     04EB  2CED               	goto	u3431
  7013     04EC  2CEE               	goto	u3430
  7014     04ED                     u3431:
  7015     04ED  2CF3               	goto	l2875
  7016     04EE                     u3430:
  7017     04EE                     l2873:
  7018     04EE  0840               	movf	___flmul@bexp,w
  7019     04EF  1D03               	btfss	3,2
  7020     04F0  2CF2               	goto	u3441
  7021     04F1  2CF3               	goto	u3440
  7022     04F2                     u3441:
  7023     04F2  2CFC               	goto	l2879
  7024     04F3                     u3440:
  7025     04F3                     l2875:
  7026     04F3  3000               	movlw	0
  7027     04F4  00B0               	movwf	?___flmul+3
  7028     04F5  3000               	movlw	0
  7029     04F6  00AF               	movwf	?___flmul+2
  7030     04F7  3000               	movlw	0
  7031     04F8  00AE               	movwf	?___flmul+1
  7032     04F9  3000               	movlw	0
  7033     04FA  00AD               	movwf	?___flmul
  7034     04FB  2FD9               	goto	l868
  7035     04FC                     l2879:
  7036     04FC  082D               	movf	___flmul@b,w
  7037     04FD  00F0               	movwf	__Umul8_16@multiplicand
  7038     04FE  0833               	movf	___flmul@a+2,w
  7039     04FF  160A  118A  2230  120A  118A  	fcall	__Umul8_16
  7040     0504  0871               	movf	?__Umul8_16+1,w
  7041     0505  1283               	bcf	3,5	;RP0=0, select bank0
  7042     0506  1303               	bcf	3,6	;RP1=0, select bank0
  7043     0507  00C6               	movwf	___flmul@temp+1
  7044     0508  0870               	movf	?__Umul8_16,w
  7045     0509  00C5               	movwf	___flmul@temp
  7046     050A                     l2881:
  7047     050A  0845               	movf	___flmul@temp,w
  7048     050B  00B5               	movwf	??___flmul
  7049     050C  01B6               	clrf	??___flmul+1
  7050     050D  01B7               	clrf	??___flmul+2
  7051     050E  01B8               	clrf	??___flmul+3
  7052     050F  0838               	movf	??___flmul+3,w
  7053     0510  00BE               	movwf	___flmul@grs+3
  7054     0511  0837               	movf	??___flmul+2,w
  7055     0512  00BD               	movwf	___flmul@grs+2
  7056     0513  0836               	movf	??___flmul+1,w
  7057     0514  00BC               	movwf	___flmul@grs+1
  7058     0515  0835               	movf	??___flmul,w
  7059     0516  00BB               	movwf	___flmul@grs
  7060     0517                     l2883:
  7061     0517  0846               	movf	___flmul@temp+1,w
  7062     0518  00B5               	movwf	??___flmul
  7063     0519  01B6               	clrf	??___flmul+1
  7064     051A  01B7               	clrf	??___flmul+2
  7065     051B  01B8               	clrf	??___flmul+3
  7066     051C  0838               	movf	??___flmul+3,w
  7067     051D  00C4               	movwf	___flmul@prod+3
  7068     051E  0837               	movf	??___flmul+2,w
  7069     051F  00C3               	movwf	___flmul@prod+2
  7070     0520  0836               	movf	??___flmul+1,w
  7071     0521  00C2               	movwf	___flmul@prod+1
  7072     0522  0835               	movf	??___flmul,w
  7073     0523  00C1               	movwf	___flmul@prod
  7074     0524  082E               	movf	___flmul@b+1,w
  7075     0525  00F0               	movwf	__Umul8_16@multiplicand
  7076     0526  0832               	movf	___flmul@a+1,w
  7077     0527  160A  118A  2230  120A  118A  	fcall	__Umul8_16
  7078     052C  0871               	movf	?__Umul8_16+1,w
  7079     052D  1283               	bcf	3,5	;RP0=0, select bank0
  7080     052E  1303               	bcf	3,6	;RP1=0, select bank0
  7081     052F  00C6               	movwf	___flmul@temp+1
  7082     0530  0870               	movf	?__Umul8_16,w
  7083     0531  00C5               	movwf	___flmul@temp
  7084     0532                     l2885:
  7085     0532  0845               	movf	___flmul@temp,w
  7086     0533  00B5               	movwf	??___flmul
  7087     0534  01B6               	clrf	??___flmul+1
  7088     0535  01B7               	clrf	??___flmul+2
  7089     0536  01B8               	clrf	??___flmul+3
  7090     0537  0835               	movf	??___flmul,w
  7091     0538  07BB               	addwf	___flmul@grs,f
  7092     0539  0836               	movf	??___flmul+1,w
  7093     053A  1103               	clrz
  7094     053B  1803               	skipnc
  7095     053C  3E01               	addlw	1
  7096     053D  1903               	skipnz
  7097     053E  2D40               	goto	u3451
  7098     053F  07BC               	addwf	___flmul@grs+1,f
  7099     0540                     u3451:
  7100     0540  0837               	movf	??___flmul+2,w
  7101     0541  1103               	clrz
  7102     0542  1803               	skipnc
  7103     0543  3E01               	addlw	1
  7104     0544  1903               	skipnz
  7105     0545  2D47               	goto	u3452
  7106     0546  07BD               	addwf	___flmul@grs+2,f
  7107     0547                     u3452:
  7108     0547  0838               	movf	??___flmul+3,w
  7109     0548  1103               	clrz
  7110     0549  1803               	skipnc
  7111     054A  3E01               	addlw	1
  7112     054B  1903               	skipnz
  7113     054C  2D4E               	goto	u3453
  7114     054D  07BE               	addwf	___flmul@grs+3,f
  7115     054E                     u3453:
  7116     054E                     l2887:
  7117     054E  0846               	movf	___flmul@temp+1,w
  7118     054F  00B5               	movwf	??___flmul
  7119     0550  01B6               	clrf	??___flmul+1
  7120     0551  01B7               	clrf	??___flmul+2
  7121     0552  01B8               	clrf	??___flmul+3
  7122     0553  0835               	movf	??___flmul,w
  7123     0554  07C1               	addwf	___flmul@prod,f
  7124     0555  0836               	movf	??___flmul+1,w
  7125     0556  1103               	clrz
  7126     0557  1803               	skipnc
  7127     0558  3E01               	addlw	1
  7128     0559  1903               	skipnz
  7129     055A  2D5C               	goto	u3461
  7130     055B  07C2               	addwf	___flmul@prod+1,f
  7131     055C                     u3461:
  7132     055C  0837               	movf	??___flmul+2,w
  7133     055D  1103               	clrz
  7134     055E  1803               	skipnc
  7135     055F  3E01               	addlw	1
  7136     0560  1903               	skipnz
  7137     0561  2D63               	goto	u3462
  7138     0562  07C3               	addwf	___flmul@prod+2,f
  7139     0563                     u3462:
  7140     0563  0838               	movf	??___flmul+3,w
  7141     0564  1103               	clrz
  7142     0565  1803               	skipnc
  7143     0566  3E01               	addlw	1
  7144     0567  1903               	skipnz
  7145     0568  2D6A               	goto	u3463
  7146     0569  07C4               	addwf	___flmul@prod+3,f
  7147     056A                     u3463:
  7148     056A  082F               	movf	___flmul@b+2,w
  7149     056B  00F0               	movwf	__Umul8_16@multiplicand
  7150     056C  0831               	movf	___flmul@a,w
  7151     056D  160A  118A  2230  120A  118A  	fcall	__Umul8_16
  7152     0572  0871               	movf	?__Umul8_16+1,w
  7153     0573  1283               	bcf	3,5	;RP0=0, select bank0
  7154     0574  1303               	bcf	3,6	;RP1=0, select bank0
  7155     0575  00C6               	movwf	___flmul@temp+1
  7156     0576  0870               	movf	?__Umul8_16,w
  7157     0577  00C5               	movwf	___flmul@temp
  7158     0578                     l2889:
  7159     0578  0845               	movf	___flmul@temp,w
  7160     0579  00B5               	movwf	??___flmul
  7161     057A  01B6               	clrf	??___flmul+1
  7162     057B  01B7               	clrf	??___flmul+2
  7163     057C  01B8               	clrf	??___flmul+3
  7164     057D  0835               	movf	??___flmul,w
  7165     057E  07BB               	addwf	___flmul@grs,f
  7166     057F  0836               	movf	??___flmul+1,w
  7167     0580  1103               	clrz
  7168     0581  1803               	skipnc
  7169     0582  3E01               	addlw	1
  7170     0583  1903               	skipnz
  7171     0584  2D86               	goto	u3471
  7172     0585  07BC               	addwf	___flmul@grs+1,f
  7173     0586                     u3471:
  7174     0586  0837               	movf	??___flmul+2,w
  7175     0587  1103               	clrz
  7176     0588  1803               	skipnc
  7177     0589  3E01               	addlw	1
  7178     058A  1903               	skipnz
  7179     058B  2D8D               	goto	u3472
  7180     058C  07BD               	addwf	___flmul@grs+2,f
  7181     058D                     u3472:
  7182     058D  0838               	movf	??___flmul+3,w
  7183     058E  1103               	clrz
  7184     058F  1803               	skipnc
  7185     0590  3E01               	addlw	1
  7186     0591  1903               	skipnz
  7187     0592  2D94               	goto	u3473
  7188     0593  07BE               	addwf	___flmul@grs+3,f
  7189     0594                     u3473:
  7190     0594                     l2891:
  7191     0594  0846               	movf	___flmul@temp+1,w
  7192     0595  00B5               	movwf	??___flmul
  7193     0596  01B6               	clrf	??___flmul+1
  7194     0597  01B7               	clrf	??___flmul+2
  7195     0598  01B8               	clrf	??___flmul+3
  7196     0599  0835               	movf	??___flmul,w
  7197     059A  07C1               	addwf	___flmul@prod,f
  7198     059B  0836               	movf	??___flmul+1,w
  7199     059C  1103               	clrz
  7200     059D  1803               	skipnc
  7201     059E  3E01               	addlw	1
  7202     059F  1903               	skipnz
  7203     05A0  2DA2               	goto	u3481
  7204     05A1  07C2               	addwf	___flmul@prod+1,f
  7205     05A2                     u3481:
  7206     05A2  0837               	movf	??___flmul+2,w
  7207     05A3  1103               	clrz
  7208     05A4  1803               	skipnc
  7209     05A5  3E01               	addlw	1
  7210     05A6  1903               	skipnz
  7211     05A7  2DA9               	goto	u3482
  7212     05A8  07C3               	addwf	___flmul@prod+2,f
  7213     05A9                     u3482:
  7214     05A9  0838               	movf	??___flmul+3,w
  7215     05AA  1103               	clrz
  7216     05AB  1803               	skipnc
  7217     05AC  3E01               	addlw	1
  7218     05AD  1903               	skipnz
  7219     05AE  2DB0               	goto	u3483
  7220     05AF  07C4               	addwf	___flmul@prod+3,f
  7221     05B0                     u3483:
  7222     05B0                     l2893:
  7223     05B0  3008               	movlw	8
  7224     05B1  00B5               	movwf	??___flmul
  7225     05B2                     u3495:
  7226     05B2  1003               	clrc
  7227     05B3  0DBB               	rlf	___flmul@grs,f
  7228     05B4  0DBC               	rlf	___flmul@grs+1,f
  7229     05B5  0DBD               	rlf	___flmul@grs+2,f
  7230     05B6  0DBE               	rlf	___flmul@grs+3,f
  7231     05B7  0BB5               	decfsz	??___flmul,f
  7232     05B8  2DB2               	goto	u3495
  7233     05B9                     l2895:
  7234     05B9  082E               	movf	___flmul@b+1,w
  7235     05BA  00F0               	movwf	__Umul8_16@multiplicand
  7236     05BB  0831               	movf	___flmul@a,w
  7237     05BC  160A  118A  2230  120A  118A  	fcall	__Umul8_16
  7238     05C1  0871               	movf	?__Umul8_16+1,w
  7239     05C2  1283               	bcf	3,5	;RP0=0, select bank0
  7240     05C3  1303               	bcf	3,6	;RP1=0, select bank0
  7241     05C4  00C6               	movwf	___flmul@temp+1
  7242     05C5  0870               	movf	?__Umul8_16,w
  7243     05C6  00C5               	movwf	___flmul@temp
  7244     05C7                     l2897:
  7245     05C7  0845               	movf	___flmul@temp,w
  7246     05C8  00B5               	movwf	??___flmul
  7247     05C9  0846               	movf	___flmul@temp+1,w
  7248     05CA  00B6               	movwf	??___flmul+1
  7249     05CB  01B7               	clrf	??___flmul+2
  7250     05CC  01B8               	clrf	??___flmul+3
  7251     05CD  0835               	movf	??___flmul,w
  7252     05CE  07BB               	addwf	___flmul@grs,f
  7253     05CF  0836               	movf	??___flmul+1,w
  7254     05D0  1103               	clrz
  7255     05D1  1803               	skipnc
  7256     05D2  3E01               	addlw	1
  7257     05D3  1903               	skipnz
  7258     05D4  2DD6               	goto	u3501
  7259     05D5  07BC               	addwf	___flmul@grs+1,f
  7260     05D6                     u3501:
  7261     05D6  0837               	movf	??___flmul+2,w
  7262     05D7  1103               	clrz
  7263     05D8  1803               	skipnc
  7264     05D9  3E01               	addlw	1
  7265     05DA  1903               	skipnz
  7266     05DB  2DDD               	goto	u3502
  7267     05DC  07BD               	addwf	___flmul@grs+2,f
  7268     05DD                     u3502:
  7269     05DD  0838               	movf	??___flmul+3,w
  7270     05DE  1103               	clrz
  7271     05DF  1803               	skipnc
  7272     05E0  3E01               	addlw	1
  7273     05E1  1903               	skipnz
  7274     05E2  2DE4               	goto	u3503
  7275     05E3  07BE               	addwf	___flmul@grs+3,f
  7276     05E4                     u3503:
  7277     05E4                     l2899:
  7278     05E4  082D               	movf	___flmul@b,w
  7279     05E5  00F0               	movwf	__Umul8_16@multiplicand
  7280     05E6  0832               	movf	___flmul@a+1,w
  7281     05E7  160A  118A  2230  120A  118A  	fcall	__Umul8_16
  7282     05EC  0871               	movf	?__Umul8_16+1,w
  7283     05ED  1283               	bcf	3,5	;RP0=0, select bank0
  7284     05EE  1303               	bcf	3,6	;RP1=0, select bank0
  7285     05EF  00C6               	movwf	___flmul@temp+1
  7286     05F0  0870               	movf	?__Umul8_16,w
  7287     05F1  00C5               	movwf	___flmul@temp
  7288     05F2                     l2901:
  7289     05F2  0845               	movf	___flmul@temp,w
  7290     05F3  00B5               	movwf	??___flmul
  7291     05F4  0846               	movf	___flmul@temp+1,w
  7292     05F5  00B6               	movwf	??___flmul+1
  7293     05F6  01B7               	clrf	??___flmul+2
  7294     05F7  01B8               	clrf	??___flmul+3
  7295     05F8  0835               	movf	??___flmul,w
  7296     05F9  07BB               	addwf	___flmul@grs,f
  7297     05FA  0836               	movf	??___flmul+1,w
  7298     05FB  1103               	clrz
  7299     05FC  1803               	skipnc
  7300     05FD  3E01               	addlw	1
  7301     05FE  1903               	skipnz
  7302     05FF  2E01               	goto	u3511
  7303     0600  07BC               	addwf	___flmul@grs+1,f
  7304     0601                     u3511:
  7305     0601  0837               	movf	??___flmul+2,w
  7306     0602  1103               	clrz
  7307     0603  1803               	skipnc
  7308     0604  3E01               	addlw	1
  7309     0605  1903               	skipnz
  7310     0606  2E08               	goto	u3512
  7311     0607  07BD               	addwf	___flmul@grs+2,f
  7312     0608                     u3512:
  7313     0608  0838               	movf	??___flmul+3,w
  7314     0609  1103               	clrz
  7315     060A  1803               	skipnc
  7316     060B  3E01               	addlw	1
  7317     060C  1903               	skipnz
  7318     060D  2E0F               	goto	u3513
  7319     060E  07BE               	addwf	___flmul@grs+3,f
  7320     060F                     u3513:
  7321     060F                     l2903:
  7322     060F  3008               	movlw	8
  7323     0610  00B5               	movwf	??___flmul
  7324     0611                     u3525:
  7325     0611  1003               	clrc
  7326     0612  0DBB               	rlf	___flmul@grs,f
  7327     0613  0DBC               	rlf	___flmul@grs+1,f
  7328     0614  0DBD               	rlf	___flmul@grs+2,f
  7329     0615  0DBE               	rlf	___flmul@grs+3,f
  7330     0616  0BB5               	decfsz	??___flmul,f
  7331     0617  2E11               	goto	u3525
  7332     0618  082D               	movf	___flmul@b,w
  7333     0619  00F0               	movwf	__Umul8_16@multiplicand
  7334     061A  0831               	movf	___flmul@a,w
  7335     061B  160A  118A  2230  120A  118A  	fcall	__Umul8_16
  7336     0620  0871               	movf	?__Umul8_16+1,w
  7337     0621  1283               	bcf	3,5	;RP0=0, select bank0
  7338     0622  1303               	bcf	3,6	;RP1=0, select bank0
  7339     0623  00C6               	movwf	___flmul@temp+1
  7340     0624  0870               	movf	?__Umul8_16,w
  7341     0625  00C5               	movwf	___flmul@temp
  7342     0626                     l2905:
  7343     0626  0845               	movf	___flmul@temp,w
  7344     0627  00B5               	movwf	??___flmul
  7345     0628  0846               	movf	___flmul@temp+1,w
  7346     0629  00B6               	movwf	??___flmul+1
  7347     062A  01B7               	clrf	??___flmul+2
  7348     062B  01B8               	clrf	??___flmul+3
  7349     062C  0835               	movf	??___flmul,w
  7350     062D  07BB               	addwf	___flmul@grs,f
  7351     062E  0836               	movf	??___flmul+1,w
  7352     062F  1103               	clrz
  7353     0630  1803               	skipnc
  7354     0631  3E01               	addlw	1
  7355     0632  1903               	skipnz
  7356     0633  2E35               	goto	u3531
  7357     0634  07BC               	addwf	___flmul@grs+1,f
  7358     0635                     u3531:
  7359     0635  0837               	movf	??___flmul+2,w
  7360     0636  1103               	clrz
  7361     0637  1803               	skipnc
  7362     0638  3E01               	addlw	1
  7363     0639  1903               	skipnz
  7364     063A  2E3C               	goto	u3532
  7365     063B  07BD               	addwf	___flmul@grs+2,f
  7366     063C                     u3532:
  7367     063C  0838               	movf	??___flmul+3,w
  7368     063D  1103               	clrz
  7369     063E  1803               	skipnc
  7370     063F  3E01               	addlw	1
  7371     0640  1903               	skipnz
  7372     0641  2E43               	goto	u3533
  7373     0642  07BE               	addwf	___flmul@grs+3,f
  7374     0643                     u3533:
  7375     0643                     l2907:
  7376     0643  082E               	movf	___flmul@b+1,w
  7377     0644  00F0               	movwf	__Umul8_16@multiplicand
  7378     0645  0833               	movf	___flmul@a+2,w
  7379     0646  160A  118A  2230  120A  118A  	fcall	__Umul8_16
  7380     064B  0871               	movf	?__Umul8_16+1,w
  7381     064C  1283               	bcf	3,5	;RP0=0, select bank0
  7382     064D  1303               	bcf	3,6	;RP1=0, select bank0
  7383     064E  00C6               	movwf	___flmul@temp+1
  7384     064F  0870               	movf	?__Umul8_16,w
  7385     0650  00C5               	movwf	___flmul@temp
  7386     0651  0845               	movf	___flmul@temp,w
  7387     0652  00B5               	movwf	??___flmul
  7388     0653  0846               	movf	___flmul@temp+1,w
  7389     0654  00B6               	movwf	??___flmul+1
  7390     0655  01B7               	clrf	??___flmul+2
  7391     0656  01B8               	clrf	??___flmul+3
  7392     0657  0835               	movf	??___flmul,w
  7393     0658  07C1               	addwf	___flmul@prod,f
  7394     0659  0836               	movf	??___flmul+1,w
  7395     065A  1103               	clrz
  7396     065B  1803               	skipnc
  7397     065C  3E01               	addlw	1
  7398     065D  1903               	skipnz
  7399     065E  2E60               	goto	u3541
  7400     065F  07C2               	addwf	___flmul@prod+1,f
  7401     0660                     u3541:
  7402     0660  0837               	movf	??___flmul+2,w
  7403     0661  1103               	clrz
  7404     0662  1803               	skipnc
  7405     0663  3E01               	addlw	1
  7406     0664  1903               	skipnz
  7407     0665  2E67               	goto	u3542
  7408     0666  07C3               	addwf	___flmul@prod+2,f
  7409     0667                     u3542:
  7410     0667  0838               	movf	??___flmul+3,w
  7411     0668  1103               	clrz
  7412     0669  1803               	skipnc
  7413     066A  3E01               	addlw	1
  7414     066B  1903               	skipnz
  7415     066C  2E6E               	goto	u3543
  7416     066D  07C4               	addwf	___flmul@prod+3,f
  7417     066E                     u3543:
  7418     066E                     l2909:
  7419     066E  082F               	movf	___flmul@b+2,w
  7420     066F  00F0               	movwf	__Umul8_16@multiplicand
  7421     0670  0832               	movf	___flmul@a+1,w
  7422     0671  160A  118A  2230  120A  118A  	fcall	__Umul8_16
  7423     0676  0871               	movf	?__Umul8_16+1,w
  7424     0677  1283               	bcf	3,5	;RP0=0, select bank0
  7425     0678  1303               	bcf	3,6	;RP1=0, select bank0
  7426     0679  00C6               	movwf	___flmul@temp+1
  7427     067A  0870               	movf	?__Umul8_16,w
  7428     067B  00C5               	movwf	___flmul@temp
  7429     067C                     l2911:
  7430     067C  0845               	movf	___flmul@temp,w
  7431     067D  00B5               	movwf	??___flmul
  7432     067E  0846               	movf	___flmul@temp+1,w
  7433     067F  00B6               	movwf	??___flmul+1
  7434     0680  01B7               	clrf	??___flmul+2
  7435     0681  01B8               	clrf	??___flmul+3
  7436     0682  0835               	movf	??___flmul,w
  7437     0683  07C1               	addwf	___flmul@prod,f
  7438     0684  0836               	movf	??___flmul+1,w
  7439     0685  1103               	clrz
  7440     0686  1803               	skipnc
  7441     0687  3E01               	addlw	1
  7442     0688  1903               	skipnz
  7443     0689  2E8B               	goto	u3551
  7444     068A  07C2               	addwf	___flmul@prod+1,f
  7445     068B                     u3551:
  7446     068B  0837               	movf	??___flmul+2,w
  7447     068C  1103               	clrz
  7448     068D  1803               	skipnc
  7449     068E  3E01               	addlw	1
  7450     068F  1903               	skipnz
  7451     0690  2E92               	goto	u3552
  7452     0691  07C3               	addwf	___flmul@prod+2,f
  7453     0692                     u3552:
  7454     0692  0838               	movf	??___flmul+3,w
  7455     0693  1103               	clrz
  7456     0694  1803               	skipnc
  7457     0695  3E01               	addlw	1
  7458     0696  1903               	skipnz
  7459     0697  2E99               	goto	u3553
  7460     0698  07C4               	addwf	___flmul@prod+3,f
  7461     0699                     u3553:
  7462     0699  082F               	movf	___flmul@b+2,w
  7463     069A  00F0               	movwf	__Umul8_16@multiplicand
  7464     069B  0833               	movf	___flmul@a+2,w
  7465     069C  160A  118A  2230  120A  118A  	fcall	__Umul8_16
  7466     06A1  0871               	movf	?__Umul8_16+1,w
  7467     06A2  1283               	bcf	3,5	;RP0=0, select bank0
  7468     06A3  1303               	bcf	3,6	;RP1=0, select bank0
  7469     06A4  00C6               	movwf	___flmul@temp+1
  7470     06A5  0870               	movf	?__Umul8_16,w
  7471     06A6  00C5               	movwf	___flmul@temp
  7472     06A7                     l2913:
  7473     06A7  0845               	movf	___flmul@temp,w
  7474     06A8  00B5               	movwf	??___flmul
  7475     06A9  0846               	movf	___flmul@temp+1,w
  7476     06AA  00B6               	movwf	??___flmul+1
  7477     06AB  01B7               	clrf	??___flmul+2
  7478     06AC  01B8               	clrf	??___flmul+3
  7479     06AD  3008               	movlw	8
  7480     06AE                     u3565:
  7481     06AE  1003               	clrc
  7482     06AF  0DB5               	rlf	??___flmul,f
  7483     06B0  0DB6               	rlf	??___flmul+1,f
  7484     06B1  0DB7               	rlf	??___flmul+2,f
  7485     06B2  0DB8               	rlf	??___flmul+3,f
  7486     06B3                     u3560:
  7487     06B3  3EFF               	addlw	-1
  7488     06B4  1D03               	skipz
  7489     06B5  2EAE               	goto	u3565
  7490     06B6  0835               	movf	??___flmul,w
  7491     06B7  07C1               	addwf	___flmul@prod,f
  7492     06B8  0836               	movf	??___flmul+1,w
  7493     06B9  1103               	clrz
  7494     06BA  1803               	skipnc
  7495     06BB  3E01               	addlw	1
  7496     06BC  1903               	skipnz
  7497     06BD  2EBF               	goto	u3571
  7498     06BE  07C2               	addwf	___flmul@prod+1,f
  7499     06BF                     u3571:
  7500     06BF  0837               	movf	??___flmul+2,w
  7501     06C0  1103               	clrz
  7502     06C1  1803               	skipnc
  7503     06C2  3E01               	addlw	1
  7504     06C3  1903               	skipnz
  7505     06C4  2EC6               	goto	u3572
  7506     06C5  07C3               	addwf	___flmul@prod+2,f
  7507     06C6                     u3572:
  7508     06C6  0838               	movf	??___flmul+3,w
  7509     06C7  1103               	clrz
  7510     06C8  1803               	skipnc
  7511     06C9  3E01               	addlw	1
  7512     06CA  1903               	skipnz
  7513     06CB  2ECD               	goto	u3573
  7514     06CC  07C4               	addwf	___flmul@prod+3,f
  7515     06CD                     u3573:
  7516     06CD                     l2915:
  7517     06CD  083B               	movf	___flmul@grs,w
  7518     06CE  00B5               	movwf	??___flmul
  7519     06CF  083C               	movf	___flmul@grs+1,w
  7520     06D0  00B6               	movwf	??___flmul+1
  7521     06D1  083D               	movf	___flmul@grs+2,w
  7522     06D2  00B7               	movwf	??___flmul+2
  7523     06D3  083E               	movf	___flmul@grs+3,w
  7524     06D4  00B8               	movwf	??___flmul+3
  7525     06D5  3018               	movlw	24
  7526     06D6                     u3585:
  7527     06D6  1003               	clrc
  7528     06D7  0CB8               	rrf	??___flmul+3,f
  7529     06D8  0CB7               	rrf	??___flmul+2,f
  7530     06D9  0CB6               	rrf	??___flmul+1,f
  7531     06DA  0CB5               	rrf	??___flmul,f
  7532     06DB                     u3580:
  7533     06DB  3EFF               	addlw	-1
  7534     06DC  1D03               	skipz
  7535     06DD  2ED6               	goto	u3585
  7536     06DE  0835               	movf	??___flmul,w
  7537     06DF  07C1               	addwf	___flmul@prod,f
  7538     06E0  0836               	movf	??___flmul+1,w
  7539     06E1  1103               	clrz
  7540     06E2  1803               	skipnc
  7541     06E3  3E01               	addlw	1
  7542     06E4  1903               	skipnz
  7543     06E5  2EE7               	goto	u3591
  7544     06E6  07C2               	addwf	___flmul@prod+1,f
  7545     06E7                     u3591:
  7546     06E7  0837               	movf	??___flmul+2,w
  7547     06E8  1103               	clrz
  7548     06E9  1803               	skipnc
  7549     06EA  3E01               	addlw	1
  7550     06EB  1903               	skipnz
  7551     06EC  2EEE               	goto	u3592
  7552     06ED  07C3               	addwf	___flmul@prod+2,f
  7553     06EE                     u3592:
  7554     06EE  0838               	movf	??___flmul+3,w
  7555     06EF  1103               	clrz
  7556     06F0  1803               	skipnc
  7557     06F1  3E01               	addlw	1
  7558     06F2  1903               	skipnz
  7559     06F3  2EF5               	goto	u3593
  7560     06F4  07C4               	addwf	___flmul@prod+3,f
  7561     06F5                     u3593:
  7562     06F5                     l2917:
  7563     06F5  3008               	movlw	8
  7564     06F6  00B5               	movwf	??___flmul
  7565     06F7                     u3605:
  7566     06F7  1003               	clrc
  7567     06F8  0DBB               	rlf	___flmul@grs,f
  7568     06F9  0DBC               	rlf	___flmul@grs+1,f
  7569     06FA  0DBD               	rlf	___flmul@grs+2,f
  7570     06FB  0DBE               	rlf	___flmul@grs+3,f
  7571     06FC  0BB5               	decfsz	??___flmul,f
  7572     06FD  2EF7               	goto	u3605
  7573     06FE                     l2919:
  7574     06FE  0840               	movf	___flmul@bexp,w
  7575     06FF  073F               	addwf	___flmul@aexp,w
  7576     0700  00B5               	movwf	??___flmul
  7577     0701  01B6               	clrf	??___flmul+1
  7578     0702  0DB6               	rlf	??___flmul+1,f
  7579     0703  0835               	movf	??___flmul,w
  7580     0704  3E82               	addlw	130
  7581     0705  00C5               	movwf	___flmul@temp
  7582     0706  0836               	movf	??___flmul+1,w
  7583     0707  1803               	skipnc
  7584     0708  3E01               	addlw	1
  7585     0709  3EFF               	addlw	255
  7586     070A  00C6               	movwf	___flmul@temp+1
  7587     070B  2F29               	goto	l2931
  7588     070C                     l2921:
  7589     070C  3001               	movlw	1
  7590     070D  00B5               	movwf	??___flmul
  7591     070E                     u3615:
  7592     070E  1003               	clrc
  7593     070F  0DC1               	rlf	___flmul@prod,f
  7594     0710  0DC2               	rlf	___flmul@prod+1,f
  7595     0711  0DC3               	rlf	___flmul@prod+2,f
  7596     0712  0DC4               	rlf	___flmul@prod+3,f
  7597     0713  0BB5               	decfsz	??___flmul,f
  7598     0714  2F0E               	goto	u3615
  7599     0715                     l2923:
  7600     0715  1FBE               	btfss	___flmul@grs+3,7
  7601     0716  2F18               	goto	u3621
  7602     0717  2F19               	goto	u3620
  7603     0718                     u3621:
  7604     0718  2F1A               	goto	l2927
  7605     0719                     u3620:
  7606     0719                     l2925:
  7607     0719  1441               	bsf	___flmul@prod,0
  7608     071A                     l2927:
  7609     071A  3001               	movlw	1
  7610     071B  00B5               	movwf	??___flmul
  7611     071C                     u3635:
  7612     071C  1003               	clrc
  7613     071D  0DBB               	rlf	___flmul@grs,f
  7614     071E  0DBC               	rlf	___flmul@grs+1,f
  7615     071F  0DBD               	rlf	___flmul@grs+2,f
  7616     0720  0DBE               	rlf	___flmul@grs+3,f
  7617     0721  0BB5               	decfsz	??___flmul,f
  7618     0722  2F1C               	goto	u3635
  7619     0723                     l2929:
  7620     0723  30FF               	movlw	255
  7621     0724  07C5               	addwf	___flmul@temp,f
  7622     0725  1803               	skipnc
  7623     0726  0AC6               	incf	___flmul@temp+1,f
  7624     0727  30FF               	movlw	255
  7625     0728  07C6               	addwf	___flmul@temp+1,f
  7626     0729                     l2931:
  7627     0729  1FC3               	btfss	___flmul@prod+2,7
  7628     072A  2F2C               	goto	u3641
  7629     072B  2F2D               	goto	u3640
  7630     072C                     u3641:
  7631     072C  2F0C               	goto	l2921
  7632     072D                     u3640:
  7633     072D                     l2933:
  7634     072D  01BF               	clrf	___flmul@aexp
  7635     072E                     l2935:
  7636     072E  1FBE               	btfss	___flmul@grs+3,7
  7637     072F  2F31               	goto	u3651
  7638     0730  2F32               	goto	u3650
  7639     0731                     u3651:
  7640     0731  2F4E               	goto	l2943
  7641     0732                     u3650:
  7642     0732                     l2937:
  7643     0732  30FF               	movlw	255
  7644     0733  053B               	andwf	___flmul@grs,w
  7645     0734  00B5               	movwf	??___flmul
  7646     0735  30FF               	movlw	255
  7647     0736  053C               	andwf	___flmul@grs+1,w
  7648     0737  00B6               	movwf	??___flmul+1
  7649     0738  30FF               	movlw	255
  7650     0739  053D               	andwf	___flmul@grs+2,w
  7651     073A  00B7               	movwf	??___flmul+2
  7652     073B  307F               	movlw	127
  7653     073C  053E               	andwf	___flmul@grs+3,w
  7654     073D  00B8               	movwf	??___flmul+3
  7655     073E  0838               	movf	??___flmul+3,w
  7656     073F  0437               	iorwf	??___flmul+2,w
  7657     0740  0436               	iorwf	??___flmul+1,w
  7658     0741  0435               	iorwf	??___flmul,w
  7659     0742  1903               	skipnz
  7660     0743  2F45               	goto	u3661
  7661     0744  2F46               	goto	u3660
  7662     0745                     u3661:
  7663     0745  2F49               	goto	l874
  7664     0746                     u3660:
  7665     0746                     l2939:
  7666     0746  01BF               	clrf	___flmul@aexp
  7667     0747  0ABF               	incf	___flmul@aexp,f
  7668     0748  2F4E               	goto	l2943
  7669     0749                     l874:
  7670     0749  1C41               	btfss	___flmul@prod,0
  7671     074A  2F4C               	goto	u3671
  7672     074B  2F4D               	goto	u3670
  7673     074C                     u3671:
  7674     074C  2F4E               	goto	l2943
  7675     074D                     u3670:
  7676     074D  2F46               	goto	l2939
  7677     074E                     l2943:
  7678     074E  083F               	movf	___flmul@aexp,w
  7679     074F  1903               	btfsc	3,2
  7680     0750  2F52               	goto	u3681
  7681     0751  2F53               	goto	u3680
  7682     0752                     u3681:
  7683     0752  2F84               	goto	l2953
  7684     0753                     u3680:
  7685     0753                     l2945:
  7686     0753  3001               	movlw	1
  7687     0754  07C1               	addwf	___flmul@prod,f
  7688     0755  3000               	movlw	0
  7689     0756  1803               	skipnc
  7690     0757  3001               	movlw	1
  7691     0758  07C2               	addwf	___flmul@prod+1,f
  7692     0759  3000               	movlw	0
  7693     075A  1803               	skipnc
  7694     075B  3001               	movlw	1
  7695     075C  07C3               	addwf	___flmul@prod+2,f
  7696     075D  3000               	movlw	0
  7697     075E  1803               	skipnc
  7698     075F  3001               	movlw	1
  7699     0760  07C4               	addwf	___flmul@prod+3,f
  7700     0761                     l2947:
  7701     0761  1C44               	btfss	___flmul@prod+3,0
  7702     0762  2F64               	goto	u3691
  7703     0763  2F65               	goto	u3690
  7704     0764                     u3691:
  7705     0764  2F84               	goto	l2953
  7706     0765                     u3690:
  7707     0765                     l2949:
  7708     0765  0841               	movf	___flmul@prod,w
  7709     0766  00B5               	movwf	??___flmul
  7710     0767  0842               	movf	___flmul@prod+1,w
  7711     0768  00B6               	movwf	??___flmul+1
  7712     0769  0843               	movf	___flmul@prod+2,w
  7713     076A  00B7               	movwf	??___flmul+2
  7714     076B  0844               	movf	___flmul@prod+3,w
  7715     076C  00B8               	movwf	??___flmul+3
  7716     076D  3001               	movlw	1
  7717     076E  00B9               	movwf	??___flmul+4
  7718     076F                     u3705:
  7719     076F  0D38               	rlf	??___flmul+3,w
  7720     0770  0CB8               	rrf	??___flmul+3,f
  7721     0771  0CB7               	rrf	??___flmul+2,f
  7722     0772  0CB6               	rrf	??___flmul+1,f
  7723     0773  0CB5               	rrf	??___flmul,f
  7724     0774                     u3700:
  7725     0774  0BB9               	decfsz	??___flmul+4,f
  7726     0775  2F6F               	goto	u3705
  7727     0776  0838               	movf	??___flmul+3,w
  7728     0777  00C4               	movwf	___flmul@prod+3
  7729     0778  0837               	movf	??___flmul+2,w
  7730     0779  00C3               	movwf	___flmul@prod+2
  7731     077A  0836               	movf	??___flmul+1,w
  7732     077B  00C2               	movwf	___flmul@prod+1
  7733     077C  0835               	movf	??___flmul,w
  7734     077D  00C1               	movwf	___flmul@prod
  7735     077E                     l2951:
  7736     077E  3001               	movlw	1
  7737     077F  07C5               	addwf	___flmul@temp,f
  7738     0780  1803               	skipnc
  7739     0781  0AC6               	incf	___flmul@temp+1,f
  7740     0782  3000               	movlw	0
  7741     0783  07C6               	addwf	___flmul@temp+1,f
  7742     0784                     l2953:
  7743     0784  0846               	movf	___flmul@temp+1,w
  7744     0785  3A80               	xorlw	128
  7745     0786  00FF               	movwf	btemp+1
  7746     0787  3080               	movlw	128
  7747     0788  027F               	subwf	btemp+1,w
  7748     0789  1D03               	skipz
  7749     078A  2F8D               	goto	u3715
  7750     078B  30FF               	movlw	255
  7751     078C  0245               	subwf	___flmul@temp,w
  7752     078D                     u3715:
  7753     078D  1C03               	skipc
  7754     078E  2F90               	goto	u3711
  7755     078F  2F91               	goto	u3710
  7756     0790                     u3711:
  7757     0790  2F9C               	goto	l2957
  7758     0791                     u3710:
  7759     0791                     l2955:
  7760     0791  307F               	movlw	127
  7761     0792  1283               	bcf	3,5	;RP0=0, select bank0
  7762     0793  1303               	bcf	3,6	;RP1=0, select bank0
  7763     0794  00C4               	movwf	___flmul@prod+3
  7764     0795  3080               	movlw	128
  7765     0796  00C3               	movwf	___flmul@prod+2
  7766     0797  3000               	movlw	0
  7767     0798  00C2               	movwf	___flmul@prod+1
  7768     0799  3000               	movlw	0
  7769     079A  00C1               	movwf	___flmul@prod
  7770     079B  2FCD               	goto	l880
  7771     079C                     l2957:
  7772     079C  1283               	bcf	3,5	;RP0=0, select bank0
  7773     079D  1303               	bcf	3,6	;RP1=0, select bank0
  7774     079E  0846               	movf	___flmul@temp+1,w
  7775     079F  3A80               	xorlw	128
  7776     07A0  00FF               	movwf	btemp+1
  7777     07A1  3080               	movlw	128
  7778     07A2  027F               	subwf	btemp+1,w
  7779     07A3  1D03               	skipz
  7780     07A4  2FA7               	goto	u3725
  7781     07A5  3001               	movlw	1
  7782     07A6  0245               	subwf	___flmul@temp,w
  7783     07A7                     u3725:
  7784     07A7  1803               	skipnc
  7785     07A8  2FAA               	goto	u3721
  7786     07A9  2FAB               	goto	u3720
  7787     07AA                     u3721:
  7788     07AA  2FB7               	goto	l2963
  7789     07AB                     u3720:
  7790     07AB                     l2959:
  7791     07AB  3000               	movlw	0
  7792     07AC  1283               	bcf	3,5	;RP0=0, select bank0
  7793     07AD  1303               	bcf	3,6	;RP1=0, select bank0
  7794     07AE  00C4               	movwf	___flmul@prod+3
  7795     07AF  3000               	movlw	0
  7796     07B0  00C3               	movwf	___flmul@prod+2
  7797     07B1  3000               	movlw	0
  7798     07B2  00C2               	movwf	___flmul@prod+1
  7799     07B3  3000               	movlw	0
  7800     07B4  00C1               	movwf	___flmul@prod
  7801     07B5                     l2961:
  7802     07B5  01BA               	clrf	___flmul@sign
  7803     07B6  2FCD               	goto	l880
  7804     07B7                     l2963:
  7805     07B7  1283               	bcf	3,5	;RP0=0, select bank0
  7806     07B8  1303               	bcf	3,6	;RP1=0, select bank0
  7807     07B9  0845               	movf	___flmul@temp,w
  7808     07BA  00C0               	movwf	___flmul@bexp
  7809     07BB  30FF               	movlw	255
  7810     07BC  05C1               	andwf	___flmul@prod,f
  7811     07BD  30FF               	movlw	255
  7812     07BE  05C2               	andwf	___flmul@prod+1,f
  7813     07BF  307F               	movlw	127
  7814     07C0  05C3               	andwf	___flmul@prod+2,f
  7815     07C1  3000               	movlw	0
  7816     07C2  05C4               	andwf	___flmul@prod+3,f
  7817     07C3                     l2965:
  7818     07C3  1C40               	btfss	___flmul@bexp,0
  7819     07C4  2FC6               	goto	u3731
  7820     07C5  2FC7               	goto	u3730
  7821     07C6                     u3731:
  7822     07C6  2FC8               	goto	l2969
  7823     07C7                     u3730:
  7824     07C7                     l2967:
  7825     07C7  17C3               	bsf	___flmul@prod+2,7
  7826     07C8                     l2969:
  7827     07C8  0840               	movf	___flmul@bexp,w
  7828     07C9  00B5               	movwf	??___flmul
  7829     07CA  1003               	clrc
  7830     07CB  0C35               	rrf	??___flmul,w
  7831     07CC  00C4               	movwf	___flmul@prod+3
  7832     07CD                     l880:
  7833     07CD  083A               	movf	___flmul@sign,w
  7834     07CE  00B5               	movwf	??___flmul
  7835     07CF  0835               	movf	??___flmul,w
  7836     07D0  04C4               	iorwf	___flmul@prod+3,f
  7837     07D1                     l2971:
  7838     07D1  0844               	movf	___flmul@prod+3,w
  7839     07D2  00B0               	movwf	?___flmul+3
  7840     07D3  0843               	movf	___flmul@prod+2,w
  7841     07D4  00AF               	movwf	?___flmul+2
  7842     07D5  0842               	movf	___flmul@prod+1,w
  7843     07D6  00AE               	movwf	?___flmul+1
  7844     07D7  0841               	movf	___flmul@prod,w
  7845     07D8  00AD               	movwf	?___flmul
  7846     07D9                     l868:
  7847     07D9  0008               	return
  7848     07DA                     __end_of___flmul:
  7849                           
  7850                           	psect	text27
  7851     1230                     __ptext27:	
  7852 ;; *************** function __Umul8_16 *****************
  7853 ;; Defined at:
  7854 ;;		line 4 in file "C:\Program Files\Microchip\xc8\v2.40\pic\sources\c90\common\Umul8_16.c"
  7855 ;; Parameters:    Size  Location     Type
  7856 ;;  multiplier      1    wreg     unsigned char 
  7857 ;;  multiplicand    1    0[COMMON] unsigned char 
  7858 ;; Auto vars:     Size  Location     Type
  7859 ;;  multiplier      1    8[COMMON] unsigned char 
  7860 ;;  word_mpld       2    6[COMMON] unsigned int 
  7861 ;;  product         2    4[COMMON] unsigned int 
  7862 ;; Return value:  Size  Location     Type
  7863 ;;                  2    0[COMMON] unsigned int 
  7864 ;; Registers used:
  7865 ;;		wreg, status,2, status,0
  7866 ;; Tracked objects:
  7867 ;;		On entry : 0/0
  7868 ;;		On exit  : 0/0
  7869 ;;		Unchanged: 0/0
  7870 ;; Data sizes:     COMMON   BANK0   BANK1   BANK3   BANK2
  7871 ;;      Params:         2       0       0       0       0
  7872 ;;      Locals:         5       0       0       0       0
  7873 ;;      Temps:          2       0       0       0       0
  7874 ;;      Totals:         9       0       0       0       0
  7875 ;;Total ram usage:        9 bytes
  7876 ;; Hardware stack levels used: 1
  7877 ;; This function calls:
  7878 ;;		Nothing
  7879 ;; This function is called by:
  7880 ;;		___flmul
  7881 ;; This function uses a non-reentrant model
  7882 ;;
  7883                           
  7884     1230                     __Umul8_16:	
  7885                           ;psect for function __Umul8_16
  7886                           
  7887                           
  7888                           ;incstack = 0
  7889                           ; Regs used in __Umul8_16: [wreg+status,2+status,0]
  7890                           ;__Umul8_16@multiplier stored from wreg
  7891     1230  00F8               	movwf	__Umul8_16@multiplier
  7892     1231                     l2513:
  7893     1231  01F4               	clrf	__Umul8_16@product
  7894     1232  01F5               	clrf	__Umul8_16@product+1
  7895     1233                     l2515:
  7896     1233  0870               	movf	__Umul8_16@multiplicand,w
  7897     1234  00F2               	movwf	??__Umul8_16
  7898     1235  01F3               	clrf	??__Umul8_16+1
  7899     1236  0872               	movf	??__Umul8_16,w
  7900     1237  00F6               	movwf	__Umul8_16@word_mpld
  7901     1238  0873               	movf	??__Umul8_16+1,w
  7902     1239  00F7               	movwf	__Umul8_16@word_mpld+1
  7903     123A                     l2517:
  7904     123A  1C78               	btfss	__Umul8_16@multiplier,0
  7905     123B  2A3D               	goto	u2641
  7906     123C  2A3E               	goto	u2640
  7907     123D                     u2641:
  7908     123D  2A44               	goto	l887
  7909     123E                     u2640:
  7910     123E                     l2519:
  7911     123E  0876               	movf	__Umul8_16@word_mpld,w
  7912     123F  07F4               	addwf	__Umul8_16@product,f
  7913     1240  1803               	skipnc
  7914     1241  0AF5               	incf	__Umul8_16@product+1,f
  7915     1242  0877               	movf	__Umul8_16@word_mpld+1,w
  7916     1243  07F5               	addwf	__Umul8_16@product+1,f
  7917     1244                     l887:
  7918     1244  3001               	movlw	1
  7919     1245                     u2655:
  7920     1245  1003               	clrc
  7921     1246  0DF6               	rlf	__Umul8_16@word_mpld,f
  7922     1247  0DF7               	rlf	__Umul8_16@word_mpld+1,f
  7923     1248  3EFF               	addlw	-1
  7924     1249  1D03               	skipz
  7925     124A  2A45               	goto	u2655
  7926     124B  1003               	clrc
  7927     124C  0CF8               	rrf	__Umul8_16@multiplier,f
  7928     124D                     l2521:
  7929     124D  0878               	movf	__Umul8_16@multiplier,w
  7930     124E  1D03               	btfss	3,2
  7931     124F  2A51               	goto	u2661
  7932     1250  2A52               	goto	u2660
  7933     1251                     u2661:
  7934     1251  2A3A               	goto	l2517
  7935     1252                     u2660:
  7936     1252                     l2523:
  7937     1252  0875               	movf	__Umul8_16@product+1,w
  7938     1253  00F1               	movwf	?__Umul8_16+1
  7939     1254  0874               	movf	__Umul8_16@product,w
  7940     1255  00F0               	movwf	?__Umul8_16
  7941     1256                     l889:
  7942     1256  0008               	return
  7943     1257                     __end_of__Umul8_16:
  7944                           
  7945                           	psect	text28
  7946     16A6                     __ptext28:	
  7947 ;; *************** function ___flge *****************
  7948 ;; Defined at:
  7949 ;;		line 4 in file "C:\Program Files\Microchip\xc8\v2.40\pic\sources\c90\common\flge.c"
  7950 ;; Parameters:    Size  Location     Type
  7951 ;;  ff1             4    0[COMMON] unsigned int 
  7952 ;;  ff2             4    4[COMMON] unsigned int 
  7953 ;; Auto vars:     Size  Location     Type
  7954 ;;		None
  7955 ;; Return value:  Size  Location     Type
  7956 ;;		None               void
  7957 ;; Registers used:
  7958 ;;		wreg, status,2, status,0
  7959 ;; Tracked objects:
  7960 ;;		On entry : 0/0
  7961 ;;		On exit  : 0/0
  7962 ;;		Unchanged: 0/0
  7963 ;; Data sizes:     COMMON   BANK0   BANK1   BANK3   BANK2
  7964 ;;      Params:         8       0       0       0       0
  7965 ;;      Locals:         0       0       0       0       0
  7966 ;;      Temps:          4       0       0       0       0
  7967 ;;      Totals:        12       0       0       0       0
  7968 ;;Total ram usage:       12 bytes
  7969 ;; Hardware stack levels used: 1
  7970 ;; This function calls:
  7971 ;;		Nothing
  7972 ;; This function is called by:
  7973 ;;		_floattostr
  7974 ;; This function uses a non-reentrant model
  7975 ;;
  7976                           
  7977     16A6                     ___flge:	
  7978                           ;psect for function ___flge
  7979                           
  7980     16A6                     l2575:	
  7981                           ;incstack = 0
  7982                           ; Regs used in ___flge: [wreg+status,2+status,0]
  7983                           
  7984     16A6  3000               	movlw	0
  7985     16A7  0570               	andwf	___flge@ff1,w
  7986     16A8  00F8               	movwf	??___flge
  7987     16A9  3000               	movlw	0
  7988     16AA  0571               	andwf	___flge@ff1+1,w
  7989     16AB  00F9               	movwf	??___flge+1
  7990     16AC  3080               	movlw	128
  7991     16AD  0572               	andwf	___flge@ff1+2,w
  7992     16AE  00FA               	movwf	??___flge+2
  7993     16AF  307F               	movlw	127
  7994     16B0  0573               	andwf	___flge@ff1+3,w
  7995     16B1  00FB               	movwf	??___flge+3
  7996     16B2  087B               	movf	??___flge+3,w
  7997     16B3  047A               	iorwf	??___flge+2,w
  7998     16B4  0479               	iorwf	??___flge+1,w
  7999     16B5  0478               	iorwf	??___flge,w
  8000     16B6  1D03               	skipz
  8001     16B7  2EB9               	goto	u2761
  8002     16B8  2EBA               	goto	u2760
  8003     16B9                     u2761:
  8004     16B9  2EC2               	goto	l653
  8005     16BA                     u2760:
  8006     16BA                     l2577:
  8007     16BA  3000               	movlw	0
  8008     16BB  00F3               	movwf	___flge@ff1+3
  8009     16BC  3000               	movlw	0
  8010     16BD  00F2               	movwf	___flge@ff1+2
  8011     16BE  3000               	movlw	0
  8012     16BF  00F1               	movwf	___flge@ff1+1
  8013     16C0  3000               	movlw	0
  8014     16C1  00F0               	movwf	___flge@ff1
  8015     16C2                     l653:
  8016     16C2  3000               	movlw	0
  8017     16C3  0574               	andwf	___flge@ff2,w
  8018     16C4  00F8               	movwf	??___flge
  8019     16C5  3000               	movlw	0
  8020     16C6  0575               	andwf	___flge@ff2+1,w
  8021     16C7  00F9               	movwf	??___flge+1
  8022     16C8  3080               	movlw	128
  8023     16C9  0576               	andwf	___flge@ff2+2,w
  8024     16CA  00FA               	movwf	??___flge+2
  8025     16CB  307F               	movlw	127
  8026     16CC  0577               	andwf	___flge@ff2+3,w
  8027     16CD  00FB               	movwf	??___flge+3
  8028     16CE  087B               	movf	??___flge+3,w
  8029     16CF  047A               	iorwf	??___flge+2,w
  8030     16D0  0479               	iorwf	??___flge+1,w
  8031     16D1  0478               	iorwf	??___flge,w
  8032     16D2  1D03               	skipz
  8033     16D3  2ED5               	goto	u2771
  8034     16D4  2ED6               	goto	u2770
  8035     16D5                     u2771:
  8036     16D5  2EDE               	goto	l2581
  8037     16D6                     u2770:
  8038     16D6                     l2579:
  8039     16D6  3000               	movlw	0
  8040     16D7  00F7               	movwf	___flge@ff2+3
  8041     16D8  3000               	movlw	0
  8042     16D9  00F6               	movwf	___flge@ff2+2
  8043     16DA  3000               	movlw	0
  8044     16DB  00F5               	movwf	___flge@ff2+1
  8045     16DC  3000               	movlw	0
  8046     16DD  00F4               	movwf	___flge@ff2
  8047     16DE                     l2581:
  8048     16DE  1FF3               	btfss	___flge@ff1+3,7
  8049     16DF  2EE1               	goto	u2781
  8050     16E0  2EE2               	goto	u2780
  8051     16E1                     u2781:
  8052     16E1  2F06               	goto	l2585
  8053     16E2                     u2780:
  8054     16E2                     l2583:
  8055     16E2  3000               	movlw	0
  8056     16E3  00F8               	movwf	??___flge
  8057     16E4  3000               	movlw	0
  8058     16E5  00F9               	movwf	??___flge+1
  8059     16E6  3000               	movlw	0
  8060     16E7  00FA               	movwf	??___flge+2
  8061     16E8  3080               	movlw	128
  8062     16E9  00FB               	movwf	??___flge+3
  8063     16EA  0870               	movf	___flge@ff1,w
  8064     16EB  02F8               	subwf	??___flge,f
  8065     16EC  0871               	movf	___flge@ff1+1,w
  8066     16ED  1C03               	skipc
  8067     16EE  0F71               	incfsz	___flge@ff1+1,w
  8068     16EF  2EF1               	goto	u2791
  8069     16F0  2EF2               	goto	u2792
  8070     16F1                     u2791:
  8071     16F1  02F9               	subwf	??___flge+1,f
  8072     16F2                     u2792:
  8073     16F2  0872               	movf	___flge@ff1+2,w
  8074     16F3  1C03               	skipc
  8075     16F4  0F72               	incfsz	___flge@ff1+2,w
  8076     16F5  2EF7               	goto	u2793
  8077     16F6  2EF8               	goto	u2794
  8078     16F7                     u2793:
  8079     16F7  02FA               	subwf	??___flge+2,f
  8080     16F8                     u2794:
  8081     16F8  0873               	movf	___flge@ff1+3,w
  8082     16F9  1C03               	skipc
  8083     16FA  0F73               	incfsz	___flge@ff1+3,w
  8084     16FB  2EFD               	goto	u2795
  8085     16FC  2EFE               	goto	u2796
  8086     16FD                     u2795:
  8087     16FD  02FB               	subwf	??___flge+3,f
  8088     16FE                     u2796:
  8089     16FE  087B               	movf	??___flge+3,w
  8090     16FF  00F3               	movwf	___flge@ff1+3
  8091     1700  087A               	movf	??___flge+2,w
  8092     1701  00F2               	movwf	___flge@ff1+2
  8093     1702  0879               	movf	??___flge+1,w
  8094     1703  00F1               	movwf	___flge@ff1+1
  8095     1704  0878               	movf	??___flge,w
  8096     1705  00F0               	movwf	___flge@ff1
  8097     1706                     l2585:
  8098     1706  1FF7               	btfss	___flge@ff2+3,7
  8099     1707  2F09               	goto	u2801
  8100     1708  2F0A               	goto	u2800
  8101     1709                     u2801:
  8102     1709  2F2E               	goto	l656
  8103     170A                     u2800:
  8104     170A                     l2587:
  8105     170A  3000               	movlw	0
  8106     170B  00F8               	movwf	??___flge
  8107     170C  3000               	movlw	0
  8108     170D  00F9               	movwf	??___flge+1
  8109     170E  3000               	movlw	0
  8110     170F  00FA               	movwf	??___flge+2
  8111     1710  3080               	movlw	128
  8112     1711  00FB               	movwf	??___flge+3
  8113     1712  0874               	movf	___flge@ff2,w
  8114     1713  02F8               	subwf	??___flge,f
  8115     1714  0875               	movf	___flge@ff2+1,w
  8116     1715  1C03               	skipc
  8117     1716  0F75               	incfsz	___flge@ff2+1,w
  8118     1717  2F19               	goto	u2811
  8119     1718  2F1A               	goto	u2812
  8120     1719                     u2811:
  8121     1719  02F9               	subwf	??___flge+1,f
  8122     171A                     u2812:
  8123     171A  0876               	movf	___flge@ff2+2,w
  8124     171B  1C03               	skipc
  8125     171C  0F76               	incfsz	___flge@ff2+2,w
  8126     171D  2F1F               	goto	u2813
  8127     171E  2F20               	goto	u2814
  8128     171F                     u2813:
  8129     171F  02FA               	subwf	??___flge+2,f
  8130     1720                     u2814:
  8131     1720  0877               	movf	___flge@ff2+3,w
  8132     1721  1C03               	skipc
  8133     1722  0F77               	incfsz	___flge@ff2+3,w
  8134     1723  2F25               	goto	u2815
  8135     1724  2F26               	goto	u2816
  8136     1725                     u2815:
  8137     1725  02FB               	subwf	??___flge+3,f
  8138     1726                     u2816:
  8139     1726  087B               	movf	??___flge+3,w
  8140     1727  00F7               	movwf	___flge@ff2+3
  8141     1728  087A               	movf	??___flge+2,w
  8142     1729  00F6               	movwf	___flge@ff2+2
  8143     172A  0879               	movf	??___flge+1,w
  8144     172B  00F5               	movwf	___flge@ff2+1
  8145     172C  0878               	movf	??___flge,w
  8146     172D  00F4               	movwf	___flge@ff2
  8147     172E                     l656:
  8148     172E  3080               	movlw	128
  8149     172F  06F3               	xorwf	___flge@ff1+3,f
  8150     1730  3080               	movlw	128
  8151     1731  06F7               	xorwf	___flge@ff2+3,f
  8152     1732  0877               	movf	___flge@ff2+3,w
  8153     1733  0273               	subwf	___flge@ff1+3,w
  8154     1734  1D03               	skipz
  8155     1735  2F40               	goto	u2825
  8156     1736  0876               	movf	___flge@ff2+2,w
  8157     1737  0272               	subwf	___flge@ff1+2,w
  8158     1738  1D03               	skipz
  8159     1739  2F40               	goto	u2825
  8160     173A  0875               	movf	___flge@ff2+1,w
  8161     173B  0271               	subwf	___flge@ff1+1,w
  8162     173C  1D03               	skipz
  8163     173D  2F40               	goto	u2825
  8164     173E  0874               	movf	___flge@ff2,w
  8165     173F  0270               	subwf	___flge@ff1,w
  8166     1740                     u2825:
  8167     1740  1803               	skipnc
  8168     1741  2F43               	goto	u2821
  8169     1742  2F44               	goto	u2820
  8170     1743                     u2821:
  8171     1743  2F46               	goto	l2591
  8172     1744                     u2820:
  8173     1744                     l2589:
  8174     1744  1003               	clrc
  8175     1745  2F47               	goto	l657
  8176     1746                     l2591:
  8177     1746  1403               	setc
  8178     1747                     l657:
  8179     1747  0008               	return
  8180     1748                     __end_of___flge:
  8181                           
  8182                           	psect	text29
  8183     0BCF                     __ptext29:	
  8184 ;; *************** function ___fldiv *****************
  8185 ;; Defined at:
  8186 ;;		line 8 in file "C:\Program Files\Microchip\xc8\v2.40\pic\sources\c90\common\sprcdiv.c"
  8187 ;; Parameters:    Size  Location     Type
  8188 ;;  a               4    0[COMMON] unsigned int 
  8189 ;;  b               4    4[COMMON] unsigned int 
  8190 ;; Auto vars:     Size  Location     Type
  8191 ;;  grs             4    7[BANK0 ] unsigned long 
  8192 ;;  rem             4    0[BANK0 ] unsigned long 
  8193 ;;  new_exp         2    5[BANK0 ] int 
  8194 ;;  aexp            1   12[BANK0 ] unsigned char 
  8195 ;;  bexp            1   11[BANK0 ] unsigned char 
  8196 ;;  sign            1    4[BANK0 ] unsigned char 
  8197 ;; Return value:  Size  Location     Type
  8198 ;;                  4    0[COMMON] unsigned char 
  8199 ;; Registers used:
  8200 ;;		wreg, status,2, status,0, btemp+1
  8201 ;; Tracked objects:
  8202 ;;		On entry : 0/0
  8203 ;;		On exit  : 0/0
  8204 ;;		Unchanged: 0/0
  8205 ;; Data sizes:     COMMON   BANK0   BANK1   BANK3   BANK2
  8206 ;;      Params:         8       0       0       0       0
  8207 ;;      Locals:         0      13       0       0       0
  8208 ;;      Temps:          5       0       0       0       0
  8209 ;;      Totals:        13      13       0       0       0
  8210 ;;Total ram usage:       26 bytes
  8211 ;; Hardware stack levels used: 1
  8212 ;; This function calls:
  8213 ;;		Nothing
  8214 ;; This function is called by:
  8215 ;;		_floattostr
  8216 ;;		_AHT10_Read
  8217 ;; This function uses a non-reentrant model
  8218 ;;
  8219                           
  8220     0BCF                     ___fldiv:	
  8221                           ;psect for function ___fldiv
  8222                           
  8223     0BCF                     l2693:	
  8224                           ;incstack = 0
  8225                           ; Regs used in ___fldiv: [wreg+status,2+status,0+btemp+1]
  8226                           
  8227     0BCF  0877               	movf	___fldiv@b+3,w
  8228     0BD0  3980               	andlw	128
  8229     0BD1  1283               	bcf	3,5	;RP0=0, select bank0
  8230     0BD2  1303               	bcf	3,6	;RP1=0, select bank0
  8231     0BD3  00A4               	movwf	___fldiv@sign
  8232     0BD4                     l2695:
  8233     0BD4  0877               	movf	___fldiv@b+3,w
  8234     0BD5  00F8               	movwf	??___fldiv
  8235     0BD6  0778               	addwf	??___fldiv,w
  8236     0BD7  00AB               	movwf	___fldiv@bexp
  8237     0BD8                     l2697:
  8238     0BD8  1FF6               	btfss	___fldiv@b+2,7
  8239     0BD9  2BDB               	goto	u3071
  8240     0BDA  2BDC               	goto	u3070
  8241     0BDB                     u3071:
  8242     0BDB  2BDD               	goto	l2701
  8243     0BDC                     u3070:
  8244     0BDC                     l2699:
  8245     0BDC  142B               	bsf	___fldiv@bexp,0
  8246     0BDD                     l2701:
  8247     0BDD  082B               	movf	___fldiv@bexp,w
  8248     0BDE  1903               	btfsc	3,2
  8249     0BDF  2BE1               	goto	u3081
  8250     0BE0  2BE2               	goto	u3080
  8251     0BE1                     u3081:
  8252     0BE1  2BF2               	goto	l2711
  8253     0BE2                     u3080:
  8254     0BE2                     l2703:
  8255     0BE2  0A2B               	incf	___fldiv@bexp,w
  8256     0BE3  1D03               	btfss	3,2
  8257     0BE4  2BE6               	goto	u3091
  8258     0BE5  2BE7               	goto	u3090
  8259     0BE6                     u3091:
  8260     0BE6  2BEF               	goto	l2707
  8261     0BE7                     u3090:
  8262     0BE7                     l2705:
  8263     0BE7  3000               	movlw	0
  8264     0BE8  00F7               	movwf	___fldiv@b+3
  8265     0BE9  3000               	movlw	0
  8266     0BEA  00F6               	movwf	___fldiv@b+2
  8267     0BEB  3000               	movlw	0
  8268     0BEC  00F5               	movwf	___fldiv@b+1
  8269     0BED  3000               	movlw	0
  8270     0BEE  00F4               	movwf	___fldiv@b
  8271     0BEF                     l2707:
  8272     0BEF  17F6               	bsf	___fldiv@b+2,7
  8273     0BF0                     l2709:
  8274     0BF0  01F7               	clrf	___fldiv@b+3
  8275     0BF1  2BFA               	goto	l2713
  8276     0BF2                     l2711:
  8277     0BF2  3000               	movlw	0
  8278     0BF3  00F7               	movwf	___fldiv@b+3
  8279     0BF4  3000               	movlw	0
  8280     0BF5  00F6               	movwf	___fldiv@b+2
  8281     0BF6  3000               	movlw	0
  8282     0BF7  00F5               	movwf	___fldiv@b+1
  8283     0BF8  3000               	movlw	0
  8284     0BF9  00F4               	movwf	___fldiv@b
  8285     0BFA                     l2713:
  8286     0BFA  0873               	movf	___fldiv@a+3,w
  8287     0BFB  3980               	andlw	128
  8288     0BFC  00F8               	movwf	??___fldiv
  8289     0BFD  0878               	movf	??___fldiv,w
  8290     0BFE  06A4               	xorwf	___fldiv@sign,f
  8291     0BFF                     l2715:
  8292     0BFF  0873               	movf	___fldiv@a+3,w
  8293     0C00  00F8               	movwf	??___fldiv
  8294     0C01  0778               	addwf	??___fldiv,w
  8295     0C02  00AC               	movwf	___fldiv@aexp
  8296     0C03                     l2717:
  8297     0C03  1FF2               	btfss	___fldiv@a+2,7
  8298     0C04  2C06               	goto	u3101
  8299     0C05  2C07               	goto	u3100
  8300     0C06                     u3101:
  8301     0C06  2C08               	goto	l2721
  8302     0C07                     u3100:
  8303     0C07                     l2719:
  8304     0C07  142C               	bsf	___fldiv@aexp,0
  8305     0C08                     l2721:
  8306     0C08  082C               	movf	___fldiv@aexp,w
  8307     0C09  1903               	btfsc	3,2
  8308     0C0A  2C0C               	goto	u3111
  8309     0C0B  2C0D               	goto	u3110
  8310     0C0C                     u3111:
  8311     0C0C  2C1D               	goto	l2731
  8312     0C0D                     u3110:
  8313     0C0D                     l2723:
  8314     0C0D  0A2C               	incf	___fldiv@aexp,w
  8315     0C0E  1D03               	btfss	3,2
  8316     0C0F  2C11               	goto	u3121
  8317     0C10  2C12               	goto	u3120
  8318     0C11                     u3121:
  8319     0C11  2C1A               	goto	l2727
  8320     0C12                     u3120:
  8321     0C12                     l2725:
  8322     0C12  3000               	movlw	0
  8323     0C13  00F3               	movwf	___fldiv@a+3
  8324     0C14  3000               	movlw	0
  8325     0C15  00F2               	movwf	___fldiv@a+2
  8326     0C16  3000               	movlw	0
  8327     0C17  00F1               	movwf	___fldiv@a+1
  8328     0C18  3000               	movlw	0
  8329     0C19  00F0               	movwf	___fldiv@a
  8330     0C1A                     l2727:
  8331     0C1A  17F2               	bsf	___fldiv@a+2,7
  8332     0C1B                     l2729:
  8333     0C1B  01F3               	clrf	___fldiv@a+3
  8334     0C1C  2C25               	goto	l828
  8335     0C1D                     l2731:
  8336     0C1D  3000               	movlw	0
  8337     0C1E  00F3               	movwf	___fldiv@a+3
  8338     0C1F  3000               	movlw	0
  8339     0C20  00F2               	movwf	___fldiv@a+2
  8340     0C21  3000               	movlw	0
  8341     0C22  00F1               	movwf	___fldiv@a+1
  8342     0C23  3000               	movlw	0
  8343     0C24  00F0               	movwf	___fldiv@a
  8344     0C25                     l828:
  8345     0C25  0873               	movf	___fldiv@a+3,w
  8346     0C26  0472               	iorwf	___fldiv@a+2,w
  8347     0C27  0471               	iorwf	___fldiv@a+1,w
  8348     0C28  0470               	iorwf	___fldiv@a,w
  8349     0C29  1D03               	skipz
  8350     0C2A  2C2C               	goto	u3131
  8351     0C2B  2C2D               	goto	u3130
  8352     0C2C                     u3131:
  8353     0C2C  2C46               	goto	l2741
  8354     0C2D                     u3130:
  8355     0C2D                     l2733:
  8356     0C2D  3000               	movlw	0
  8357     0C2E  00F7               	movwf	___fldiv@b+3
  8358     0C2F  3000               	movlw	0
  8359     0C30  00F6               	movwf	___fldiv@b+2
  8360     0C31  3000               	movlw	0
  8361     0C32  00F5               	movwf	___fldiv@b+1
  8362     0C33  3000               	movlw	0
  8363     0C34  00F4               	movwf	___fldiv@b
  8364     0C35  3080               	movlw	128
  8365     0C36  04F6               	iorwf	___fldiv@b+2,f
  8366     0C37  307F               	movlw	127
  8367     0C38  04F7               	iorwf	___fldiv@b+3,f
  8368     0C39                     l2735:
  8369     0C39  0824               	movf	___fldiv@sign,w
  8370     0C3A  00F8               	movwf	??___fldiv
  8371     0C3B  0878               	movf	??___fldiv,w
  8372     0C3C  04F7               	iorwf	___fldiv@b+3,f
  8373     0C3D                     l2737:
  8374     0C3D  0877               	movf	___fldiv@b+3,w
  8375     0C3E  00F3               	movwf	?___fldiv+3
  8376     0C3F  0876               	movf	___fldiv@b+2,w
  8377     0C40  00F2               	movwf	?___fldiv+2
  8378     0C41  0875               	movf	___fldiv@b+1,w
  8379     0C42  00F1               	movwf	?___fldiv+1
  8380     0C43  0874               	movf	___fldiv@b,w
  8381     0C44  00F0               	movwf	?___fldiv
  8382     0C45  2DA7               	goto	l830
  8383     0C46                     l2741:
  8384     0C46  082B               	movf	___fldiv@bexp,w
  8385     0C47  1D03               	btfss	3,2
  8386     0C48  2C4A               	goto	u3141
  8387     0C49  2C4B               	goto	u3140
  8388     0C4A                     u3141:
  8389     0C4A  2C54               	goto	l2747
  8390     0C4B                     u3140:
  8391     0C4B                     l2743:
  8392     0C4B  3000               	movlw	0
  8393     0C4C  00F3               	movwf	?___fldiv+3
  8394     0C4D  3000               	movlw	0
  8395     0C4E  00F2               	movwf	?___fldiv+2
  8396     0C4F  3000               	movlw	0
  8397     0C50  00F1               	movwf	?___fldiv+1
  8398     0C51  3000               	movlw	0
  8399     0C52  00F0               	movwf	?___fldiv
  8400     0C53  2DA7               	goto	l830
  8401     0C54                     l2747:
  8402     0C54  082B               	movf	___fldiv@bexp,w
  8403     0C55  00F8               	movwf	??___fldiv
  8404     0C56  01F9               	clrf	??___fldiv+1
  8405     0C57  0879               	movf	??___fldiv+1,w
  8406     0C58  00FB               	movwf	??___fldiv+3
  8407     0C59  082C               	movf	___fldiv@aexp,w
  8408     0C5A  0278               	subwf	??___fldiv,w
  8409     0C5B  00FA               	movwf	??___fldiv+2
  8410     0C5C  1C03               	skipc
  8411     0C5D  03FB               	decf	??___fldiv+3,f
  8412     0C5E  087A               	movf	??___fldiv+2,w
  8413     0C5F  3E7F               	addlw	127
  8414     0C60  00A5               	movwf	___fldiv@new_exp
  8415     0C61  087B               	movf	??___fldiv+3,w
  8416     0C62  1803               	skipnc
  8417     0C63  3E01               	addlw	1
  8418     0C64  3E00               	addlw	0
  8419     0C65  00A6               	movwf	___fldiv@new_exp+1
  8420     0C66                     l2749:
  8421     0C66  0877               	movf	___fldiv@b+3,w
  8422     0C67  00A3               	movwf	___fldiv@rem+3
  8423     0C68  0876               	movf	___fldiv@b+2,w
  8424     0C69  00A2               	movwf	___fldiv@rem+2
  8425     0C6A  0875               	movf	___fldiv@b+1,w
  8426     0C6B  00A1               	movwf	___fldiv@rem+1
  8427     0C6C  0874               	movf	___fldiv@b,w
  8428     0C6D  00A0               	movwf	___fldiv@rem
  8429     0C6E                     l2751:
  8430     0C6E  3000               	movlw	0
  8431     0C6F  00F7               	movwf	___fldiv@b+3
  8432     0C70  3000               	movlw	0
  8433     0C71  00F6               	movwf	___fldiv@b+2
  8434     0C72  3000               	movlw	0
  8435     0C73  00F5               	movwf	___fldiv@b+1
  8436     0C74  3000               	movlw	0
  8437     0C75  00F4               	movwf	___fldiv@b
  8438     0C76                     l2753:
  8439     0C76  3000               	movlw	0
  8440     0C77  00AA               	movwf	___fldiv@grs+3
  8441     0C78  3000               	movlw	0
  8442     0C79  00A9               	movwf	___fldiv@grs+2
  8443     0C7A  3000               	movlw	0
  8444     0C7B  00A8               	movwf	___fldiv@grs+1
  8445     0C7C  3000               	movlw	0
  8446     0C7D  00A7               	movwf	___fldiv@grs
  8447     0C7E                     l2755:
  8448     0C7E  01AC               	clrf	___fldiv@aexp
  8449     0C7F  2CD0               	goto	l2775
  8450     0C80                     l2757:
  8451     0C80  082C               	movf	___fldiv@aexp,w
  8452     0C81  1903               	btfsc	3,2
  8453     0C82  2C84               	goto	u3151
  8454     0C83  2C85               	goto	u3150
  8455     0C84                     u3151:
  8456     0C84  2CA5               	goto	l2767
  8457     0C85                     u3150:
  8458     0C85                     l2759:
  8459     0C85  3001               	movlw	1
  8460     0C86  00F8               	movwf	??___fldiv
  8461     0C87                     u3165:
  8462     0C87  1003               	clrc
  8463     0C88  0DA0               	rlf	___fldiv@rem,f
  8464     0C89  0DA1               	rlf	___fldiv@rem+1,f
  8465     0C8A  0DA2               	rlf	___fldiv@rem+2,f
  8466     0C8B  0DA3               	rlf	___fldiv@rem+3,f
  8467     0C8C  0BF8               	decfsz	??___fldiv,f
  8468     0C8D  2C87               	goto	u3165
  8469     0C8E  3001               	movlw	1
  8470     0C8F  00F8               	movwf	??___fldiv
  8471     0C90                     u3175:
  8472     0C90  1003               	clrc
  8473     0C91  0DF4               	rlf	___fldiv@b,f
  8474     0C92  0DF5               	rlf	___fldiv@b+1,f
  8475     0C93  0DF6               	rlf	___fldiv@b+2,f
  8476     0C94  0DF7               	rlf	___fldiv@b+3,f
  8477     0C95  0BF8               	decfsz	??___fldiv,f
  8478     0C96  2C90               	goto	u3175
  8479     0C97                     l2761:
  8480     0C97  1FAA               	btfss	___fldiv@grs+3,7
  8481     0C98  2C9A               	goto	u3181
  8482     0C99  2C9B               	goto	u3180
  8483     0C9A                     u3181:
  8484     0C9A  2C9C               	goto	l2765
  8485     0C9B                     u3180:
  8486     0C9B                     l2763:
  8487     0C9B  1474               	bsf	___fldiv@b,0
  8488     0C9C                     l2765:
  8489     0C9C  3001               	movlw	1
  8490     0C9D  00F8               	movwf	??___fldiv
  8491     0C9E                     u3195:
  8492     0C9E  1003               	clrc
  8493     0C9F  0DA7               	rlf	___fldiv@grs,f
  8494     0CA0  0DA8               	rlf	___fldiv@grs+1,f
  8495     0CA1  0DA9               	rlf	___fldiv@grs+2,f
  8496     0CA2  0DAA               	rlf	___fldiv@grs+3,f
  8497     0CA3  0BF8               	decfsz	??___fldiv,f
  8498     0CA4  2C9E               	goto	u3195
  8499     0CA5                     l2767:
  8500     0CA5  0873               	movf	___fldiv@a+3,w
  8501     0CA6  0223               	subwf	___fldiv@rem+3,w
  8502     0CA7  1D03               	skipz
  8503     0CA8  2CB3               	goto	u3205
  8504     0CA9  0872               	movf	___fldiv@a+2,w
  8505     0CAA  0222               	subwf	___fldiv@rem+2,w
  8506     0CAB  1D03               	skipz
  8507     0CAC  2CB3               	goto	u3205
  8508     0CAD  0871               	movf	___fldiv@a+1,w
  8509     0CAE  0221               	subwf	___fldiv@rem+1,w
  8510     0CAF  1D03               	skipz
  8511     0CB0  2CB3               	goto	u3205
  8512     0CB1  0870               	movf	___fldiv@a,w
  8513     0CB2  0220               	subwf	___fldiv@rem,w
  8514     0CB3                     u3205:
  8515     0CB3  1C03               	skipc
  8516     0CB4  2CB6               	goto	u3201
  8517     0CB5  2CB7               	goto	u3200
  8518     0CB6                     u3201:
  8519     0CB6  2CCC               	goto	l2773
  8520     0CB7                     u3200:
  8521     0CB7                     l2769:
  8522     0CB7  172A               	bsf	___fldiv@grs+3,6
  8523     0CB8                     l2771:
  8524     0CB8  0870               	movf	___fldiv@a,w
  8525     0CB9  02A0               	subwf	___fldiv@rem,f
  8526     0CBA  0871               	movf	___fldiv@a+1,w
  8527     0CBB  1C03               	skipc
  8528     0CBC  0F71               	incfsz	___fldiv@a+1,w
  8529     0CBD  2CBF               	goto	u3215
  8530     0CBE  2CC0               	goto	u3216
  8531     0CBF                     u3215:
  8532     0CBF  02A1               	subwf	___fldiv@rem+1,f
  8533     0CC0                     u3216:
  8534     0CC0  0872               	movf	___fldiv@a+2,w
  8535     0CC1  1C03               	skipc
  8536     0CC2  0F72               	incfsz	___fldiv@a+2,w
  8537     0CC3  2CC5               	goto	u3217
  8538     0CC4  2CC6               	goto	u3218
  8539     0CC5                     u3217:
  8540     0CC5  02A2               	subwf	___fldiv@rem+2,f
  8541     0CC6                     u3218:
  8542     0CC6  0873               	movf	___fldiv@a+3,w
  8543     0CC7  1C03               	skipc
  8544     0CC8  0F73               	incfsz	___fldiv@a+3,w
  8545     0CC9  2CCB               	goto	u3219
  8546     0CCA  2CCC               	goto	u3210
  8547     0CCB                     u3219:
  8548     0CCB  02A3               	subwf	___fldiv@rem+3,f
  8549     0CCC                     u3210:
  8550     0CCC                     l2773:
  8551     0CCC  3001               	movlw	1
  8552     0CCD  00F8               	movwf	??___fldiv
  8553     0CCE  0878               	movf	??___fldiv,w
  8554     0CCF  07AC               	addwf	___fldiv@aexp,f
  8555     0CD0                     l2775:
  8556     0CD0  301A               	movlw	26
  8557     0CD1  022C               	subwf	___fldiv@aexp,w
  8558     0CD2  1C03               	skipc
  8559     0CD3  2CD5               	goto	u3221
  8560     0CD4  2CD6               	goto	u3220
  8561     0CD5                     u3221:
  8562     0CD5  2C80               	goto	l2757
  8563     0CD6                     u3220:
  8564     0CD6                     l2777:
  8565     0CD6  0823               	movf	___fldiv@rem+3,w
  8566     0CD7  0422               	iorwf	___fldiv@rem+2,w
  8567     0CD8  0421               	iorwf	___fldiv@rem+1,w
  8568     0CD9  0420               	iorwf	___fldiv@rem,w
  8569     0CDA  1903               	skipnz
  8570     0CDB  2CDD               	goto	u3231
  8571     0CDC  2CDE               	goto	u3230
  8572     0CDD                     u3231:
  8573     0CDD  2CFD               	goto	l2791
  8574     0CDE                     u3230:
  8575     0CDE                     l2779:
  8576     0CDE  1427               	bsf	___fldiv@grs,0
  8577     0CDF  2CFD               	goto	l2791
  8578     0CE0                     l2781:
  8579     0CE0  3001               	movlw	1
  8580     0CE1  00F8               	movwf	??___fldiv
  8581     0CE2                     u3245:
  8582     0CE2  1003               	clrc
  8583     0CE3  0DF4               	rlf	___fldiv@b,f
  8584     0CE4  0DF5               	rlf	___fldiv@b+1,f
  8585     0CE5  0DF6               	rlf	___fldiv@b+2,f
  8586     0CE6  0DF7               	rlf	___fldiv@b+3,f
  8587     0CE7  0BF8               	decfsz	??___fldiv,f
  8588     0CE8  2CE2               	goto	u3245
  8589     0CE9                     l2783:
  8590     0CE9  1FAA               	btfss	___fldiv@grs+3,7
  8591     0CEA  2CEC               	goto	u3251
  8592     0CEB  2CED               	goto	u3250
  8593     0CEC                     u3251:
  8594     0CEC  2CEE               	goto	l2787
  8595     0CED                     u3250:
  8596     0CED                     l2785:
  8597     0CED  1474               	bsf	___fldiv@b,0
  8598     0CEE                     l2787:
  8599     0CEE  3001               	movlw	1
  8600     0CEF  00F8               	movwf	??___fldiv
  8601     0CF0                     u3265:
  8602     0CF0  1003               	clrc
  8603     0CF1  0DA7               	rlf	___fldiv@grs,f
  8604     0CF2  0DA8               	rlf	___fldiv@grs+1,f
  8605     0CF3  0DA9               	rlf	___fldiv@grs+2,f
  8606     0CF4  0DAA               	rlf	___fldiv@grs+3,f
  8607     0CF5  0BF8               	decfsz	??___fldiv,f
  8608     0CF6  2CF0               	goto	u3265
  8609     0CF7                     l2789:
  8610     0CF7  30FF               	movlw	255
  8611     0CF8  07A5               	addwf	___fldiv@new_exp,f
  8612     0CF9  1803               	skipnc
  8613     0CFA  0AA6               	incf	___fldiv@new_exp+1,f
  8614     0CFB  30FF               	movlw	255
  8615     0CFC  07A6               	addwf	___fldiv@new_exp+1,f
  8616     0CFD                     l2791:
  8617     0CFD  1FF6               	btfss	___fldiv@b+2,7
  8618     0CFE  2D00               	goto	u3271
  8619     0CFF  2D01               	goto	u3270
  8620     0D00                     u3271:
  8621     0D00  2CE0               	goto	l2781
  8622     0D01                     u3270:
  8623     0D01                     l2793:
  8624     0D01  01AC               	clrf	___fldiv@aexp
  8625     0D02                     l2795:
  8626     0D02  1FAA               	btfss	___fldiv@grs+3,7
  8627     0D03  2D05               	goto	u3281
  8628     0D04  2D06               	goto	u3280
  8629     0D05                     u3281:
  8630     0D05  2D22               	goto	l2803
  8631     0D06                     u3280:
  8632     0D06                     l2797:
  8633     0D06  30FF               	movlw	255
  8634     0D07  0527               	andwf	___fldiv@grs,w
  8635     0D08  00F8               	movwf	??___fldiv
  8636     0D09  30FF               	movlw	255
  8637     0D0A  0528               	andwf	___fldiv@grs+1,w
  8638     0D0B  00F9               	movwf	??___fldiv+1
  8639     0D0C  30FF               	movlw	255
  8640     0D0D  0529               	andwf	___fldiv@grs+2,w
  8641     0D0E  00FA               	movwf	??___fldiv+2
  8642     0D0F  307F               	movlw	127
  8643     0D10  052A               	andwf	___fldiv@grs+3,w
  8644     0D11  00FB               	movwf	??___fldiv+3
  8645     0D12  087B               	movf	??___fldiv+3,w
  8646     0D13  047A               	iorwf	??___fldiv+2,w
  8647     0D14  0479               	iorwf	??___fldiv+1,w
  8648     0D15  0478               	iorwf	??___fldiv,w
  8649     0D16  1903               	skipnz
  8650     0D17  2D19               	goto	u3291
  8651     0D18  2D1A               	goto	u3290
  8652     0D19                     u3291:
  8653     0D19  2D1D               	goto	l844
  8654     0D1A                     u3290:
  8655     0D1A                     l2799:
  8656     0D1A  01AC               	clrf	___fldiv@aexp
  8657     0D1B  0AAC               	incf	___fldiv@aexp,f
  8658     0D1C  2D22               	goto	l2803
  8659     0D1D                     l844:
  8660     0D1D  1C74               	btfss	___fldiv@b,0
  8661     0D1E  2D20               	goto	u3301
  8662     0D1F  2D21               	goto	u3300
  8663     0D20                     u3301:
  8664     0D20  2D22               	goto	l2803
  8665     0D21                     u3300:
  8666     0D21  2D1A               	goto	l2799
  8667     0D22                     l2803:
  8668     0D22  082C               	movf	___fldiv@aexp,w
  8669     0D23  1903               	btfsc	3,2
  8670     0D24  2D26               	goto	u3311
  8671     0D25  2D27               	goto	u3310
  8672     0D26                     u3311:
  8673     0D26  2D58               	goto	l2813
  8674     0D27                     u3310:
  8675     0D27                     l2805:
  8676     0D27  3001               	movlw	1
  8677     0D28  07F4               	addwf	___fldiv@b,f
  8678     0D29  3000               	movlw	0
  8679     0D2A  1803               	skipnc
  8680     0D2B  3001               	movlw	1
  8681     0D2C  07F5               	addwf	___fldiv@b+1,f
  8682     0D2D  3000               	movlw	0
  8683     0D2E  1803               	skipnc
  8684     0D2F  3001               	movlw	1
  8685     0D30  07F6               	addwf	___fldiv@b+2,f
  8686     0D31  3000               	movlw	0
  8687     0D32  1803               	skipnc
  8688     0D33  3001               	movlw	1
  8689     0D34  07F7               	addwf	___fldiv@b+3,f
  8690     0D35                     l2807:
  8691     0D35  1C77               	btfss	___fldiv@b+3,0
  8692     0D36  2D38               	goto	u3321
  8693     0D37  2D39               	goto	u3320
  8694     0D38                     u3321:
  8695     0D38  2D58               	goto	l2813
  8696     0D39                     u3320:
  8697     0D39                     l2809:
  8698     0D39  0874               	movf	___fldiv@b,w
  8699     0D3A  00F8               	movwf	??___fldiv
  8700     0D3B  0875               	movf	___fldiv@b+1,w
  8701     0D3C  00F9               	movwf	??___fldiv+1
  8702     0D3D  0876               	movf	___fldiv@b+2,w
  8703     0D3E  00FA               	movwf	??___fldiv+2
  8704     0D3F  0877               	movf	___fldiv@b+3,w
  8705     0D40  00FB               	movwf	??___fldiv+3
  8706     0D41  3001               	movlw	1
  8707     0D42  00FC               	movwf	??___fldiv+4
  8708     0D43                     u3335:
  8709     0D43  0D7B               	rlf	??___fldiv+3,w
  8710     0D44  0CFB               	rrf	??___fldiv+3,f
  8711     0D45  0CFA               	rrf	??___fldiv+2,f
  8712     0D46  0CF9               	rrf	??___fldiv+1,f
  8713     0D47  0CF8               	rrf	??___fldiv,f
  8714     0D48                     u3330:
  8715     0D48  0BFC               	decfsz	??___fldiv+4,f
  8716     0D49  2D43               	goto	u3335
  8717     0D4A  087B               	movf	??___fldiv+3,w
  8718     0D4B  00F7               	movwf	___fldiv@b+3
  8719     0D4C  087A               	movf	??___fldiv+2,w
  8720     0D4D  00F6               	movwf	___fldiv@b+2
  8721     0D4E  0879               	movf	??___fldiv+1,w
  8722     0D4F  00F5               	movwf	___fldiv@b+1
  8723     0D50  0878               	movf	??___fldiv,w
  8724     0D51  00F4               	movwf	___fldiv@b
  8725     0D52                     l2811:
  8726     0D52  3001               	movlw	1
  8727     0D53  07A5               	addwf	___fldiv@new_exp,f
  8728     0D54  1803               	skipnc
  8729     0D55  0AA6               	incf	___fldiv@new_exp+1,f
  8730     0D56  3000               	movlw	0
  8731     0D57  07A6               	addwf	___fldiv@new_exp+1,f
  8732     0D58                     l2813:
  8733     0D58  0826               	movf	___fldiv@new_exp+1,w
  8734     0D59  3A80               	xorlw	128
  8735     0D5A  00FF               	movwf	btemp+1
  8736     0D5B  3080               	movlw	128
  8737     0D5C  027F               	subwf	btemp+1,w
  8738     0D5D  1D03               	skipz
  8739     0D5E  2D61               	goto	u3345
  8740     0D5F  30FF               	movlw	255
  8741     0D60  0225               	subwf	___fldiv@new_exp,w
  8742     0D61                     u3345:
  8743     0D61  1C03               	skipc
  8744     0D62  2D64               	goto	u3341
  8745     0D63  2D65               	goto	u3340
  8746     0D64                     u3341:
  8747     0D64  2D73               	goto	l2817
  8748     0D65                     u3340:
  8749     0D65                     l2815:
  8750     0D65  30FF               	movlw	255
  8751     0D66  1283               	bcf	3,5	;RP0=0, select bank0
  8752     0D67  1303               	bcf	3,6	;RP1=0, select bank0
  8753     0D68  00A5               	movwf	___fldiv@new_exp
  8754     0D69  3000               	movlw	0
  8755     0D6A  00A6               	movwf	___fldiv@new_exp+1
  8756     0D6B  3000               	movlw	0
  8757     0D6C  00F7               	movwf	___fldiv@b+3
  8758     0D6D  3000               	movlw	0
  8759     0D6E  00F6               	movwf	___fldiv@b+2
  8760     0D6F  3000               	movlw	0
  8761     0D70  00F5               	movwf	___fldiv@b+1
  8762     0D71  3000               	movlw	0
  8763     0D72  00F4               	movwf	___fldiv@b
  8764     0D73                     l2817:
  8765     0D73  1283               	bcf	3,5	;RP0=0, select bank0
  8766     0D74  1303               	bcf	3,6	;RP1=0, select bank0
  8767     0D75  0826               	movf	___fldiv@new_exp+1,w
  8768     0D76  3A80               	xorlw	128
  8769     0D77  00FF               	movwf	btemp+1
  8770     0D78  3080               	movlw	128
  8771     0D79  027F               	subwf	btemp+1,w
  8772     0D7A  1D03               	skipz
  8773     0D7B  2D7E               	goto	u3355
  8774     0D7C  3001               	movlw	1
  8775     0D7D  0225               	subwf	___fldiv@new_exp,w
  8776     0D7E                     u3355:
  8777     0D7E  1803               	skipnc
  8778     0D7F  2D81               	goto	u3351
  8779     0D80  2D82               	goto	u3350
  8780     0D81                     u3351:
  8781     0D81  2D8F               	goto	l850
  8782     0D82                     u3350:
  8783     0D82                     l2819:
  8784     0D82  1283               	bcf	3,5	;RP0=0, select bank0
  8785     0D83  1303               	bcf	3,6	;RP1=0, select bank0
  8786     0D84  01A5               	clrf	___fldiv@new_exp
  8787     0D85  01A6               	clrf	___fldiv@new_exp+1
  8788     0D86                     l2821:
  8789     0D86  3000               	movlw	0
  8790     0D87  00F7               	movwf	___fldiv@b+3
  8791     0D88  3000               	movlw	0
  8792     0D89  00F6               	movwf	___fldiv@b+2
  8793     0D8A  3000               	movlw	0
  8794     0D8B  00F5               	movwf	___fldiv@b+1
  8795     0D8C  3000               	movlw	0
  8796     0D8D  00F4               	movwf	___fldiv@b
  8797     0D8E                     l2823:
  8798     0D8E  01A4               	clrf	___fldiv@sign
  8799     0D8F                     l850:
  8800     0D8F  1283               	bcf	3,5	;RP0=0, select bank0
  8801     0D90  1303               	bcf	3,6	;RP1=0, select bank0
  8802     0D91  0825               	movf	___fldiv@new_exp,w
  8803     0D92  00AB               	movwf	___fldiv@bexp
  8804     0D93                     l2825:
  8805     0D93  1C2B               	btfss	___fldiv@bexp,0
  8806     0D94  2D96               	goto	u3361
  8807     0D95  2D97               	goto	u3360
  8808     0D96                     u3361:
  8809     0D96  2D99               	goto	l2829
  8810     0D97                     u3360:
  8811     0D97                     l2827:
  8812     0D97  17F6               	bsf	___fldiv@b+2,7
  8813     0D98  2D9D               	goto	l852
  8814     0D99                     l2829:
  8815     0D99  307F               	movlw	127
  8816     0D9A  00F8               	movwf	??___fldiv
  8817     0D9B  0878               	movf	??___fldiv,w
  8818     0D9C  05F6               	andwf	___fldiv@b+2,f
  8819     0D9D                     l852:
  8820     0D9D  082B               	movf	___fldiv@bexp,w
  8821     0D9E  00F8               	movwf	??___fldiv
  8822     0D9F  1003               	clrc
  8823     0DA0  0C78               	rrf	??___fldiv,w
  8824     0DA1  00F7               	movwf	___fldiv@b+3
  8825     0DA2  0824               	movf	___fldiv@sign,w
  8826     0DA3  00F8               	movwf	??___fldiv
  8827     0DA4  0878               	movf	??___fldiv,w
  8828     0DA5  04F7               	iorwf	___fldiv@b+3,f
  8829     0DA6  2C3D               	goto	l2737
  8830     0DA7                     l830:
  8831     0DA7  0008               	return
  8832     0DA8                     __end_of___fldiv:
  8833                           
  8834                           	psect	text30
  8835     1475                     __ptext30:	
  8836 ;; *************** function _Lcd_Write_String *****************
  8837 ;; Defined at:
  8838 ;;		line 91 in file "LCD8bits.c"
  8839 ;; Parameters:    Size  Location     Type
  8840 ;;  a               2    3[COMMON] PTR unsigned char 
  8841 ;;		 -> STR_5(6), STR_4(6), buffTime(10), buffer(5), 
  8842 ;; Auto vars:     Size  Location     Type
  8843 ;;  i               2    8[COMMON] int 
  8844 ;; Return value:  Size  Location     Type
  8845 ;;                  1    wreg      void 
  8846 ;; Registers used:
  8847 ;;		wreg, fsr0l, fsr0h, status,2, status,0, btemp+1, pclath, cstack
  8848 ;; Tracked objects:
  8849 ;;		On entry : 0/0
  8850 ;;		On exit  : 0/0
  8851 ;;		Unchanged: 0/0
  8852 ;; Data sizes:     COMMON   BANK0   BANK1   BANK3   BANK2
  8853 ;;      Params:         2       0       0       0       0
  8854 ;;      Locals:         2       0       0       0       0
  8855 ;;      Temps:          3       0       0       0       0
  8856 ;;      Totals:         7       0       0       0       0
  8857 ;;Total ram usage:        7 bytes
  8858 ;; Hardware stack levels used: 1
  8859 ;; Hardware stack levels required when called: 2
  8860 ;; This function calls:
  8861 ;;		_Lcd_Write_Char
  8862 ;; This function is called by:
  8863 ;;		_RTC
  8864 ;;		_AHT10_Read
  8865 ;;		_TSL2561_Read
  8866 ;; This function uses a non-reentrant model
  8867 ;;
  8868                           
  8869     1475                     _Lcd_Write_String:	
  8870                           ;psect for function _Lcd_Write_String
  8871                           
  8872     1475                     l3075:	
  8873                           ;incstack = 0
  8874                           ; Regs used in _Lcd_Write_String: [wreg-fsr0h+status,2+status,0+btemp+1+pclath+cstack]
  8875                           
  8876                           
  8877                           ;LCD8bits.c: 92:     int i;;LCD8bits.c: 93:     for (i = 0; a[i] != '\0'; i++)
  8878     1475  01F8               	clrf	Lcd_Write_String@i
  8879     1476  01F9               	clrf	Lcd_Write_String@i+1
  8880     1477  2C9A               	goto	l3081
  8881     1478                     l3077:
  8882                           
  8883                           ;LCD8bits.c: 94:         Lcd_Write_Char(a[i]);
  8884     1478  0878               	movf	Lcd_Write_String@i,w
  8885     1479  0773               	addwf	Lcd_Write_String@a,w
  8886     147A  00F6               	movwf	??_Lcd_Write_String+1
  8887     147B  0874               	movf	Lcd_Write_String@a+1,w
  8888     147C  00F5               	movwf	??_Lcd_Write_String
  8889     147D  1803               	skipnc
  8890     147E  0AF5               	incf	??_Lcd_Write_String,f
  8891     147F  1FF8               	btfss	Lcd_Write_String@i,7
  8892     1480  2C82               	goto	u3920
  8893     1481  03F5               	decf	??_Lcd_Write_String,f
  8894     1482                     u3920:
  8895     1482  0875               	movf	??_Lcd_Write_String,w
  8896     1483  00F7               	movwf	??_Lcd_Write_String+2
  8897     1484  0877               	movf	??_Lcd_Write_String+2,w
  8898     1485  1283               	bcf	3,5	;RP0=0, select bank0
  8899     1486  1303               	bcf	3,6	;RP1=0, select bank0
  8900     1487  00FF               	movwf	btemp+1
  8901     1488  0876               	movf	??_Lcd_Write_String+1,w
  8902     1489  0084               	movwf	4
  8903     148A  160A  118A  2000  160A  118A  	fcall	stringtab
  8904     148F  160A  118A  21BC  160A  118A  	fcall	_Lcd_Write_Char
  8905     1494                     l3079:
  8906     1494  3001               	movlw	1
  8907     1495  07F8               	addwf	Lcd_Write_String@i,f
  8908     1496  1803               	skipnc
  8909     1497  0AF9               	incf	Lcd_Write_String@i+1,f
  8910     1498  3000               	movlw	0
  8911     1499  07F9               	addwf	Lcd_Write_String@i+1,f
  8912     149A                     l3081:
  8913     149A  0878               	movf	Lcd_Write_String@i,w
  8914     149B  0773               	addwf	Lcd_Write_String@a,w
  8915     149C  00F6               	movwf	??_Lcd_Write_String+1
  8916     149D  0874               	movf	Lcd_Write_String@a+1,w
  8917     149E  00F5               	movwf	??_Lcd_Write_String
  8918     149F  1803               	skipnc
  8919     14A0  0AF5               	incf	??_Lcd_Write_String,f
  8920     14A1  1FF8               	btfss	Lcd_Write_String@i,7
  8921     14A2  2CA4               	goto	u3930
  8922     14A3  03F5               	decf	??_Lcd_Write_String,f
  8923     14A4                     u3930:
  8924     14A4  0875               	movf	??_Lcd_Write_String,w
  8925     14A5  00F7               	movwf	??_Lcd_Write_String+2
  8926     14A6  0877               	movf	??_Lcd_Write_String+2,w
  8927     14A7  1283               	bcf	3,5	;RP0=0, select bank0
  8928     14A8  1303               	bcf	3,6	;RP1=0, select bank0
  8929     14A9  00FF               	movwf	btemp+1
  8930     14AA  0876               	movf	??_Lcd_Write_String+1,w
  8931     14AB  0084               	movwf	4
  8932     14AC  160A  118A  2000  160A  118A  	fcall	stringtab
  8933     14B1  3A00               	xorlw	0
  8934     14B2  1D03               	skipz
  8935     14B3  2CB5               	goto	u3941
  8936     14B4  2CB6               	goto	u3940
  8937     14B5                     u3941:
  8938     14B5  2C78               	goto	l3077
  8939     14B6                     u3940:
  8940     14B6                     l120:
  8941     14B6  0008               	return
  8942     14B7                     __end_of_Lcd_Write_String:
  8943                           
  8944                           	psect	text31
  8945     11BC                     __ptext31:	
  8946 ;; *************** function _Lcd_Write_Char *****************
  8947 ;; Defined at:
  8948 ;;		line 83 in file "LCD8bits.c"
  8949 ;; Parameters:    Size  Location     Type
  8950 ;;  a               1    wreg     unsigned char 
  8951 ;; Auto vars:     Size  Location     Type
  8952 ;;  a               1    2[COMMON] unsigned char 
  8953 ;; Return value:  Size  Location     Type
  8954 ;;                  1    wreg      void 
  8955 ;; Registers used:
  8956 ;;		wreg, status,2, status,0, pclath, cstack
  8957 ;; Tracked objects:
  8958 ;;		On entry : 0/0
  8959 ;;		On exit  : 0/0
  8960 ;;		Unchanged: 0/0
  8961 ;; Data sizes:     COMMON   BANK0   BANK1   BANK3   BANK2
  8962 ;;      Params:         0       0       0       0       0
  8963 ;;      Locals:         1       0       0       0       0
  8964 ;;      Temps:          1       0       0       0       0
  8965 ;;      Totals:         2       0       0       0       0
  8966 ;;Total ram usage:        2 bytes
  8967 ;; Hardware stack levels used: 1
  8968 ;; Hardware stack levels required when called: 1
  8969 ;; This function calls:
  8970 ;;		_Lcd_Port
  8971 ;; This function is called by:
  8972 ;;		_Lcd_Write_String
  8973 ;; This function uses a non-reentrant model
  8974 ;;
  8975                           
  8976     11BC                     _Lcd_Write_Char:	
  8977                           ;psect for function _Lcd_Write_Char
  8978                           
  8979                           
  8980                           ;incstack = 0
  8981                           ; Regs used in _Lcd_Write_Char: [wreg+status,2+status,0+pclath+cstack]
  8982                           ;Lcd_Write_Char@a stored from wreg
  8983     11BC  00F2               	movwf	Lcd_Write_Char@a
  8984     11BD                     l2541:
  8985                           
  8986                           ;LCD8bits.c: 84:     RE0 = 1;
  8987     11BD  1283               	bcf	3,5	;RP0=0, select bank0
  8988     11BE  1303               	bcf	3,6	;RP1=0, select bank0
  8989     11BF  1409               	bsf	9,0	;volatile
  8990     11C0                     l2543:
  8991                           
  8992                           ;LCD8bits.c: 85:     Lcd_Port(a);
  8993     11C0  0872               	movf	Lcd_Write_Char@a,w
  8994     11C1  160A  118A  23F7  160A  118A  	fcall	_Lcd_Port
  8995     11C6                     l2545:
  8996                           
  8997                           ;LCD8bits.c: 86:     RE1 = 1;
  8998     11C6  1283               	bcf	3,5	;RP0=0, select bank0
  8999     11C7  1303               	bcf	3,6	;RP1=0, select bank0
  9000     11C8  1489               	bsf	9,1	;volatile
  9001     11C9                     l2547:
  9002                           
  9003                           ;LCD8bits.c: 87:     _delay((unsigned long)((40)*(8000000/4000000.0)));
  9004     11C9  301A               	movlw	26
  9005     11CA  00F1               	movwf	??_Lcd_Write_Char
  9006     11CB                     u4277:
  9007     11CB  0BF1               	decfsz	??_Lcd_Write_Char,f
  9008     11CC  29CB               	goto	u4277
  9009     11CD  0000               	nop
  9010     11CE                     l2549:
  9011                           
  9012                           ;LCD8bits.c: 88:     RE1 = 0;
  9013     11CE  1283               	bcf	3,5	;RP0=0, select bank0
  9014     11CF  1303               	bcf	3,6	;RP1=0, select bank0
  9015     11D0  1089               	bcf	9,1	;volatile
  9016     11D1                     l114:
  9017     11D1  0008               	return
  9018     11D2                     __end_of_Lcd_Write_Char:
  9019                           
  9020                           	psect	text32
  9021     11EC                     __ptext32:	
  9022 ;; *************** function _Lcd_Set_Cursor *****************
  9023 ;; Defined at:
  9024 ;;		line 58 in file "LCD8bits.c"
  9025 ;; Parameters:    Size  Location     Type
  9026 ;;  a               1    wreg     unsigned char 
  9027 ;;  b               1    4[COMMON] unsigned char 
  9028 ;; Auto vars:     Size  Location     Type
  9029 ;;  a               1    5[COMMON] unsigned char 
  9030 ;;  temp            1    6[COMMON] unsigned char 
  9031 ;;  y               1    0        unsigned char 
  9032 ;;  z               1    0        unsigned char 
  9033 ;; Return value:  Size  Location     Type
  9034 ;;                  1    wreg      void 
  9035 ;; Registers used:
  9036 ;;		wreg, status,2, status,0, pclath, cstack
  9037 ;; Tracked objects:
  9038 ;;		On entry : 0/0
  9039 ;;		On exit  : 0/0
  9040 ;;		Unchanged: 0/0
  9041 ;; Data sizes:     COMMON   BANK0   BANK1   BANK3   BANK2
  9042 ;;      Params:         1       0       0       0       0
  9043 ;;      Locals:         2       0       0       0       0
  9044 ;;      Temps:          0       0       0       0       0
  9045 ;;      Totals:         3       0       0       0       0
  9046 ;;Total ram usage:        3 bytes
  9047 ;; Hardware stack levels used: 1
  9048 ;; Hardware stack levels required when called: 2
  9049 ;; This function calls:
  9050 ;;		_Lcd_Cmd
  9051 ;; This function is called by:
  9052 ;;		_RTC
  9053 ;;		_AHT10_Read
  9054 ;;		_TSL2561_Read
  9055 ;; This function uses a non-reentrant model
  9056 ;;
  9057                           
  9058     11EC                     _Lcd_Set_Cursor:	
  9059                           ;psect for function _Lcd_Set_Cursor
  9060                           
  9061                           
  9062                           ;incstack = 0
  9063                           ; Regs used in _Lcd_Set_Cursor: [wreg+status,2+status,0+pclath+cstack]
  9064                           ;Lcd_Set_Cursor@a stored from wreg
  9065     11EC  00F5               	movwf	Lcd_Set_Cursor@a
  9066     11ED                     l3063:
  9067                           
  9068                           ;LCD8bits.c: 59:     char temp, z, y;;LCD8bits.c: 60:     if (a == 1) {
  9069     11ED  0375               	decf	Lcd_Set_Cursor@a,w
  9070     11EE  1D03               	btfss	3,2
  9071     11EF  29F1               	goto	u3901
  9072     11F0  29F2               	goto	u3900
  9073     11F1                     u3901:
  9074     11F1  29FC               	goto	l3069
  9075     11F2                     u3900:
  9076     11F2                     l3065:
  9077                           
  9078                           ;LCD8bits.c: 61:         temp = 0x80 + b - 1;
  9079     11F2  0874               	movf	Lcd_Set_Cursor@b,w
  9080     11F3  3E7F               	addlw	127
  9081     11F4  00F6               	movwf	Lcd_Set_Cursor@temp
  9082     11F5                     l3067:
  9083                           
  9084                           ;LCD8bits.c: 62:         Lcd_Cmd(temp);
  9085     11F5  0876               	movf	Lcd_Set_Cursor@temp,w
  9086     11F6  160A  118A  21D2  160A  118A  	fcall	_Lcd_Cmd
  9087                           
  9088                           ;LCD8bits.c: 63:     } else if (a == 2) {
  9089     11FB  2A0B               	goto	l108
  9090     11FC                     l3069:
  9091     11FC  3002               	movlw	2
  9092     11FD  0675               	xorwf	Lcd_Set_Cursor@a,w
  9093     11FE  1D03               	btfss	3,2
  9094     11FF  2A01               	goto	u3911
  9095     1200  2A02               	goto	u3910
  9096     1201                     u3911:
  9097     1201  2A0B               	goto	l108
  9098     1202                     u3910:
  9099     1202                     l3071:
  9100                           
  9101                           ;LCD8bits.c: 64:         temp = 0xC0 + b - 1;
  9102     1202  0874               	movf	Lcd_Set_Cursor@b,w
  9103     1203  3EBF               	addlw	191
  9104     1204  00F6               	movwf	Lcd_Set_Cursor@temp
  9105     1205                     l3073:
  9106                           
  9107                           ;LCD8bits.c: 65:         Lcd_Cmd(temp);
  9108     1205  0876               	movf	Lcd_Set_Cursor@temp,w
  9109     1206  160A  118A  21D2  160A  118A  	fcall	_Lcd_Cmd
  9110     120B                     l108:
  9111     120B  0008               	return
  9112     120C                     __end_of_Lcd_Set_Cursor:
  9113                           
  9114                           	psect	text33
  9115     11D2                     __ptext33:	
  9116 ;; *************** function _Lcd_Cmd *****************
  9117 ;; Defined at:
  9118 ;;		line 45 in file "LCD8bits.c"
  9119 ;; Parameters:    Size  Location     Type
  9120 ;;  a               1    wreg     unsigned char 
  9121 ;; Auto vars:     Size  Location     Type
  9122 ;;  a               1    3[COMMON] unsigned char 
  9123 ;; Return value:  Size  Location     Type
  9124 ;;                  1    wreg      void 
  9125 ;; Registers used:
  9126 ;;		wreg, status,2, status,0, pclath, cstack
  9127 ;; Tracked objects:
  9128 ;;		On entry : 0/0
  9129 ;;		On exit  : 0/0
  9130 ;;		Unchanged: 0/0
  9131 ;; Data sizes:     COMMON   BANK0   BANK1   BANK3   BANK2
  9132 ;;      Params:         0       0       0       0       0
  9133 ;;      Locals:         1       0       0       0       0
  9134 ;;      Temps:          2       0       0       0       0
  9135 ;;      Totals:         3       0       0       0       0
  9136 ;;Total ram usage:        3 bytes
  9137 ;; Hardware stack levels used: 1
  9138 ;; Hardware stack levels required when called: 1
  9139 ;; This function calls:
  9140 ;;		_Lcd_Port
  9141 ;; This function is called by:
  9142 ;;		_Lcd_Set_Cursor
  9143 ;;		_Lcd_Init
  9144 ;;		_Lcd_Clear
  9145 ;;		_Lcd_Shift_Right
  9146 ;;		_Lcd_Shift_Left
  9147 ;; This function uses a non-reentrant model
  9148 ;;
  9149                           
  9150     11D2                     _Lcd_Cmd:	
  9151                           ;psect for function _Lcd_Cmd
  9152                           
  9153                           
  9154                           ;incstack = 0
  9155                           ; Regs used in _Lcd_Cmd: [wreg+status,2+status,0+pclath+cstack]
  9156                           ;Lcd_Cmd@a stored from wreg
  9157     11D2  00F3               	movwf	Lcd_Cmd@a
  9158     11D3                     l2531:
  9159                           
  9160                           ;LCD8bits.c: 46:     RE0 = 0;
  9161     11D3  1283               	bcf	3,5	;RP0=0, select bank0
  9162     11D4  1303               	bcf	3,6	;RP1=0, select bank0
  9163     11D5  1009               	bcf	9,0	;volatile
  9164     11D6                     l2533:
  9165                           
  9166                           ;LCD8bits.c: 47:     Lcd_Port(a);
  9167     11D6  0873               	movf	Lcd_Cmd@a,w
  9168     11D7  160A  118A  23F7  160A  118A  	fcall	_Lcd_Port
  9169     11DC                     l2535:
  9170                           
  9171                           ;LCD8bits.c: 48:     RE1 = 1;
  9172     11DC  1283               	bcf	3,5	;RP0=0, select bank0
  9173     11DD  1303               	bcf	3,6	;RP1=0, select bank0
  9174     11DE  1489               	bsf	9,1	;volatile
  9175     11DF                     l2537:
  9176                           
  9177                           ;LCD8bits.c: 49:     _delay((unsigned long)((4)*(8000000/4000.0)));
  9178     11DF  300B               	movlw	11
  9179     11E0  00F2               	movwf	??_Lcd_Cmd+1
  9180     11E1  3062               	movlw	98
  9181     11E2  00F1               	movwf	??_Lcd_Cmd
  9182     11E3                     u4287:
  9183     11E3  0BF1               	decfsz	??_Lcd_Cmd,f
  9184     11E4  29E3               	goto	u4287
  9185     11E5  0BF2               	decfsz	??_Lcd_Cmd+1,f
  9186     11E6  29E3               	goto	u4287
  9187     11E7  0000               	nop
  9188     11E8                     l2539:
  9189                           
  9190                           ;LCD8bits.c: 50:     RE1 = 0;
  9191     11E8  1283               	bcf	3,5	;RP0=0, select bank0
  9192     11E9  1303               	bcf	3,6	;RP1=0, select bank0
  9193     11EA  1089               	bcf	9,1	;volatile
  9194     11EB                     l99:
  9195     11EB  0008               	return
  9196     11EC                     __end_of_Lcd_Cmd:
  9197                           
  9198                           	psect	text34
  9199     13F7                     __ptext34:	
  9200 ;; *************** function _Lcd_Port *****************
  9201 ;; Defined at:
  9202 ;;		line 3 in file "LCD8bits.c"
  9203 ;; Parameters:    Size  Location     Type
  9204 ;;  a               1    wreg     unsigned char 
  9205 ;; Auto vars:     Size  Location     Type
  9206 ;;  a               1    0[COMMON] unsigned char 
  9207 ;; Return value:  Size  Location     Type
  9208 ;;                  1    wreg      void 
  9209 ;; Registers used:
  9210 ;;		wreg
  9211 ;; Tracked objects:
  9212 ;;		On entry : 0/0
  9213 ;;		On exit  : 0/0
  9214 ;;		Unchanged: 0/0
  9215 ;; Data sizes:     COMMON   BANK0   BANK1   BANK3   BANK2
  9216 ;;      Params:         0       0       0       0       0
  9217 ;;      Locals:         1       0       0       0       0
  9218 ;;      Temps:          0       0       0       0       0
  9219 ;;      Totals:         1       0       0       0       0
  9220 ;;Total ram usage:        1 bytes
  9221 ;; Hardware stack levels used: 1
  9222 ;; This function calls:
  9223 ;;		Nothing
  9224 ;; This function is called by:
  9225 ;;		_Lcd_Cmd
  9226 ;;		_Lcd_Init
  9227 ;;		_Lcd_Write_Char
  9228 ;; This function uses a non-reentrant model
  9229 ;;
  9230                           
  9231     13F7                     _Lcd_Port:	
  9232                           ;psect for function _Lcd_Port
  9233                           
  9234                           
  9235                           ;incstack = 0
  9236                           ; Regs used in _Lcd_Port: [wreg]
  9237                           ;Lcd_Port@a stored from wreg
  9238     13F7  00F0               	movwf	Lcd_Port@a
  9239     13F8                     l2301:
  9240                           
  9241                           ;LCD8bits.c: 4:     if (a & 1)
  9242     13F8  1C70               	btfss	Lcd_Port@a,0
  9243     13F9  2BFB               	goto	u2101
  9244     13FA  2BFC               	goto	u2100
  9245     13FB                     u2101:
  9246     13FB  2C00               	goto	l80
  9247     13FC                     u2100:
  9248     13FC                     l2303:
  9249                           
  9250                           ;LCD8bits.c: 5:         RD0 = 1;
  9251     13FC  1283               	bcf	3,5	;RP0=0, select bank0
  9252     13FD  1303               	bcf	3,6	;RP1=0, select bank0
  9253     13FE  1408               	bsf	8,0	;volatile
  9254     13FF  2C03               	goto	l81
  9255     1400                     l80:	
  9256                           ;LCD8bits.c: 6:     else
  9257                           
  9258                           
  9259                           ;LCD8bits.c: 7:         RD0 = 0;
  9260     1400  1283               	bcf	3,5	;RP0=0, select bank0
  9261     1401  1303               	bcf	3,6	;RP1=0, select bank0
  9262     1402  1008               	bcf	8,0	;volatile
  9263     1403                     l81:
  9264                           
  9265                           ;LCD8bits.c: 9:     if (a & 2)
  9266     1403  1CF0               	btfss	Lcd_Port@a,1
  9267     1404  2C06               	goto	u2111
  9268     1405  2C07               	goto	u2110
  9269     1406                     u2111:
  9270     1406  2C09               	goto	l82
  9271     1407                     u2110:
  9272     1407                     l2305:
  9273                           
  9274                           ;LCD8bits.c: 10:         RD1 = 1;
  9275     1407  1488               	bsf	8,1	;volatile
  9276     1408  2C0A               	goto	l83
  9277     1409                     l82:	
  9278                           ;LCD8bits.c: 11:     else
  9279                           
  9280                           
  9281                           ;LCD8bits.c: 12:         RD1 = 0;
  9282     1409  1088               	bcf	8,1	;volatile
  9283     140A                     l83:
  9284                           
  9285                           ;LCD8bits.c: 14:     if (a & 4)
  9286     140A  1D70               	btfss	Lcd_Port@a,2
  9287     140B  2C0D               	goto	u2121
  9288     140C  2C0E               	goto	u2120
  9289     140D                     u2121:
  9290     140D  2C10               	goto	l84
  9291     140E                     u2120:
  9292     140E                     l2307:
  9293                           
  9294                           ;LCD8bits.c: 15:         RD2 = 1;
  9295     140E  1508               	bsf	8,2	;volatile
  9296     140F  2C11               	goto	l85
  9297     1410                     l84:	
  9298                           ;LCD8bits.c: 16:     else
  9299                           
  9300                           
  9301                           ;LCD8bits.c: 17:         RD2 = 0;
  9302     1410  1108               	bcf	8,2	;volatile
  9303     1411                     l85:
  9304                           
  9305                           ;LCD8bits.c: 19:     if (a & 8)
  9306     1411  1DF0               	btfss	Lcd_Port@a,3
  9307     1412  2C14               	goto	u2131
  9308     1413  2C15               	goto	u2130
  9309     1414                     u2131:
  9310     1414  2C17               	goto	l86
  9311     1415                     u2130:
  9312     1415                     l2309:
  9313                           
  9314                           ;LCD8bits.c: 20:         RD3 = 1;
  9315     1415  1588               	bsf	8,3	;volatile
  9316     1416  2C18               	goto	l87
  9317     1417                     l86:	
  9318                           ;LCD8bits.c: 21:     else
  9319                           
  9320                           
  9321                           ;LCD8bits.c: 22:         RD3 = 0;
  9322     1417  1188               	bcf	8,3	;volatile
  9323     1418                     l87:
  9324                           
  9325                           ;LCD8bits.c: 24:     if (a & 16)
  9326     1418  1E70               	btfss	Lcd_Port@a,4
  9327     1419  2C1B               	goto	u2141
  9328     141A  2C1C               	goto	u2140
  9329     141B                     u2141:
  9330     141B  2C1E               	goto	l88
  9331     141C                     u2140:
  9332     141C                     l2311:
  9333                           
  9334                           ;LCD8bits.c: 25:         RD4 = 1;
  9335     141C  1608               	bsf	8,4	;volatile
  9336     141D  2C1F               	goto	l89
  9337     141E                     l88:	
  9338                           ;LCD8bits.c: 26:     else
  9339                           
  9340                           
  9341                           ;LCD8bits.c: 27:         RD4 = 0;
  9342     141E  1208               	bcf	8,4	;volatile
  9343     141F                     l89:
  9344                           
  9345                           ;LCD8bits.c: 29:     if (a & 32)
  9346     141F  1EF0               	btfss	Lcd_Port@a,5
  9347     1420  2C22               	goto	u2151
  9348     1421  2C23               	goto	u2150
  9349     1422                     u2151:
  9350     1422  2C25               	goto	l90
  9351     1423                     u2150:
  9352     1423                     l2313:
  9353                           
  9354                           ;LCD8bits.c: 30:         RD5 = 1;
  9355     1423  1688               	bsf	8,5	;volatile
  9356     1424  2C26               	goto	l91
  9357     1425                     l90:	
  9358                           ;LCD8bits.c: 31:     else
  9359                           
  9360                           
  9361                           ;LCD8bits.c: 32:         RD5 = 0;
  9362     1425  1288               	bcf	8,5	;volatile
  9363     1426                     l91:
  9364                           
  9365                           ;LCD8bits.c: 34:     if (a & 64)
  9366     1426  1F70               	btfss	Lcd_Port@a,6
  9367     1427  2C29               	goto	u2161
  9368     1428  2C2A               	goto	u2160
  9369     1429                     u2161:
  9370     1429  2C2C               	goto	l92
  9371     142A                     u2160:
  9372     142A                     l2315:
  9373                           
  9374                           ;LCD8bits.c: 35:         RD6 = 1;
  9375     142A  1708               	bsf	8,6	;volatile
  9376     142B  2C2D               	goto	l93
  9377     142C                     l92:	
  9378                           ;LCD8bits.c: 36:     else
  9379                           
  9380                           
  9381                           ;LCD8bits.c: 37:         RD6 = 0;
  9382     142C  1308               	bcf	8,6	;volatile
  9383     142D                     l93:
  9384                           
  9385                           ;LCD8bits.c: 39:     if (a & 128)
  9386     142D  1FF0               	btfss	Lcd_Port@a,7
  9387     142E  2C30               	goto	u2171
  9388     142F  2C31               	goto	u2170
  9389     1430                     u2171:
  9390     1430  2C33               	goto	l94
  9391     1431                     u2170:
  9392     1431                     l2317:
  9393                           
  9394                           ;LCD8bits.c: 40:         RD7 = 1;
  9395     1431  1788               	bsf	8,7	;volatile
  9396     1432  2C34               	goto	l96
  9397     1433                     l94:	
  9398                           ;LCD8bits.c: 41:     else
  9399                           
  9400                           
  9401                           ;LCD8bits.c: 42:         RD7 = 0;
  9402     1433  1388               	bcf	8,7	;volatile
  9403     1434                     l96:
  9404     1434  0008               	return
  9405     1435                     __end_of_Lcd_Port:
  9406                           
  9407                           	psect	text35
  9408     15BE                     __ptext35:	
  9409 ;; *************** function _AHT10_Init *****************
  9410 ;; Defined at:
  9411 ;;		line 225 in file "Dig2ProMaster.c"
  9412 ;; Parameters:    Size  Location     Type
  9413 ;;		None
  9414 ;; Auto vars:     Size  Location     Type
  9415 ;;  status          1    0        unsigned char 
  9416 ;; Return value:  Size  Location     Type
  9417 ;;                  1    wreg      void 
  9418 ;; Registers used:
  9419 ;;		wreg, status,2, status,0, pclath, cstack
  9420 ;; Tracked objects:
  9421 ;;		On entry : 0/0
  9422 ;;		On exit  : 0/0
  9423 ;;		Unchanged: 0/0
  9424 ;; Data sizes:     COMMON   BANK0   BANK1   BANK3   BANK2
  9425 ;;      Params:         0       0       0       0       0
  9426 ;;      Locals:         0       0       0       0       0
  9427 ;;      Temps:          2       0       0       0       0
  9428 ;;      Totals:         2       0       0       0       0
  9429 ;;Total ram usage:        2 bytes
  9430 ;; Hardware stack levels used: 1
  9431 ;; Hardware stack levels required when called: 2
  9432 ;; This function calls:
  9433 ;;		_I2C_Master_Read
  9434 ;;		_I2C_Master_RepeatedStart
  9435 ;;		_I2C_Master_Start
  9436 ;;		_I2C_Master_Stop
  9437 ;;		_I2C_Master_Write
  9438 ;; This function is called by:
  9439 ;;		_main
  9440 ;; This function uses a non-reentrant model
  9441 ;;
  9442                           
  9443     15BE                     _AHT10_Init:	
  9444                           ;psect for function _AHT10_Init
  9445                           
  9446     15BE                     l3359:	
  9447                           ;incstack = 0
  9448                           ; Regs used in _AHT10_Init: [wreg+status,2+status,0+pclath+cstack]
  9449                           
  9450                           
  9451                           ;Dig2ProMaster.c: 226:     _delay((unsigned long)((40)*(8000000/4000.0)));
  9452     15BE  3068               	movlw	104
  9453     15BF  00F7               	movwf	??_AHT10_Init+1
  9454     15C0  30E4               	movlw	228
  9455     15C1  00F6               	movwf	??_AHT10_Init
  9456     15C2                     u4297:
  9457     15C2  0BF6               	decfsz	??_AHT10_Init,f
  9458     15C3  2DC2               	goto	u4297
  9459     15C4  0BF7               	decfsz	??_AHT10_Init+1,f
  9460     15C5  2DC2               	goto	u4297
  9461     15C6  0000               	nop
  9462     15C7                     l3361:
  9463                           
  9464                           ;Dig2ProMaster.c: 227:     uint8_t status;;Dig2ProMaster.c: 228:     I2C_Master_Start();
  9465     15C7  160A  118A  2171  160A  118A  	fcall	_I2C_Master_Start
  9466     15CC                     l3363:
  9467                           
  9468                           ;Dig2ProMaster.c: 229:     I2C_Master_Write(0x70);
  9469     15CC  3070               	movlw	112
  9470     15CD  00F0               	movwf	I2C_Master_Write@d
  9471     15CE  3000               	movlw	0
  9472     15CF  00F1               	movwf	I2C_Master_Write@d+1
  9473     15D0  160A  118A  2183  160A  118A  	fcall	_I2C_Master_Write
  9474     15D5                     l3365:
  9475                           
  9476                           ;Dig2ProMaster.c: 230:     I2C_Master_Write(0x71);
  9477     15D5  3071               	movlw	113
  9478     15D6  00F0               	movwf	I2C_Master_Write@d
  9479     15D7  3000               	movlw	0
  9480     15D8  00F1               	movwf	I2C_Master_Write@d+1
  9481     15D9  160A  118A  2183  160A  118A  	fcall	_I2C_Master_Write
  9482     15DE                     l3367:
  9483                           
  9484                           ;Dig2ProMaster.c: 231:     I2C_Master_RepeatedStart();
  9485     15DE  160A  118A  2168  160A  118A  	fcall	_I2C_Master_RepeatedStart
  9486     15E3                     l3369:
  9487                           
  9488                           ;Dig2ProMaster.c: 232:     I2C_Master_Write(0x71);
  9489     15E3  3071               	movlw	113
  9490     15E4  00F0               	movwf	I2C_Master_Write@d
  9491     15E5  3000               	movlw	0
  9492     15E6  00F1               	movwf	I2C_Master_Write@d+1
  9493     15E7  160A  118A  2183  160A  118A  	fcall	_I2C_Master_Write
  9494     15EC                     l3371:
  9495     15EC  3000               	movlw	0
  9496     15ED  00F0               	movwf	I2C_Master_Read@a
  9497     15EE  00F1               	movwf	I2C_Master_Read@a+1
  9498     15EF  160A  118A  2282  160A  118A  	fcall	_I2C_Master_Read
  9499     15F4                     l3373:
  9500                           
  9501                           ;Dig2ProMaster.c: 234:     I2C_Master_Stop();
  9502     15F4  160A  118A  217A  160A  118A  	fcall	_I2C_Master_Stop
  9503     15F9                     l3375:
  9504                           
  9505                           ;Dig2ProMaster.c: 236:     I2C_Master_Start();
  9506     15F9  160A  118A  2171  160A  118A  	fcall	_I2C_Master_Start
  9507     15FE                     l3377:
  9508                           
  9509                           ;Dig2ProMaster.c: 237:     I2C_Master_Write(0x70);
  9510     15FE  3070               	movlw	112
  9511     15FF  00F0               	movwf	I2C_Master_Write@d
  9512     1600  3000               	movlw	0
  9513     1601  00F1               	movwf	I2C_Master_Write@d+1
  9514     1602  160A  118A  2183  160A  118A  	fcall	_I2C_Master_Write
  9515     1607                     l3379:
  9516                           
  9517                           ;Dig2ProMaster.c: 238:     I2C_Master_Write(0xE1);
  9518     1607  30E1               	movlw	225
  9519     1608  00F0               	movwf	I2C_Master_Write@d
  9520     1609  3000               	movlw	0
  9521     160A  00F1               	movwf	I2C_Master_Write@d+1
  9522     160B  160A  118A  2183  160A  118A  	fcall	_I2C_Master_Write
  9523     1610                     l3381:
  9524                           
  9525                           ;Dig2ProMaster.c: 239:     I2C_Master_Write(0x08);
  9526     1610  3008               	movlw	8
  9527     1611  00F0               	movwf	I2C_Master_Write@d
  9528     1612  3000               	movlw	0
  9529     1613  00F1               	movwf	I2C_Master_Write@d+1
  9530     1614  160A  118A  2183  160A  118A  	fcall	_I2C_Master_Write
  9531     1619                     l3383:
  9532                           
  9533                           ;Dig2ProMaster.c: 240:     I2C_Master_Write(0x00);
  9534     1619  3000               	movlw	0
  9535     161A  00F0               	movwf	I2C_Master_Write@d
  9536     161B  00F1               	movwf	I2C_Master_Write@d+1
  9537     161C  160A  118A  2183  160A  118A  	fcall	_I2C_Master_Write
  9538     1621                     l3385:
  9539                           
  9540                           ;Dig2ProMaster.c: 241:     I2C_Master_Stop();
  9541     1621  160A  118A  217A  160A  118A  	fcall	_I2C_Master_Stop
  9542     1626                     l3387:
  9543                           
  9544                           ;Dig2ProMaster.c: 243:     _delay((unsigned long)((10)*(8000000/4000.0)));
  9545     1626  301A               	movlw	26
  9546     1627  00F7               	movwf	??_AHT10_Init+1
  9547     1628  30F8               	movlw	248
  9548     1629  00F6               	movwf	??_AHT10_Init
  9549     162A                     u4307:
  9550     162A  0BF6               	decfsz	??_AHT10_Init,f
  9551     162B  2E2A               	goto	u4307
  9552     162C  0BF7               	decfsz	??_AHT10_Init+1,f
  9553     162D  2E2A               	goto	u4307
  9554     162E  0000               	nop
  9555     162F                     l304:
  9556     162F  0008               	return
  9557     1630                     __end_of_AHT10_Init:
  9558                           
  9559                           	psect	text36
  9560     1183                     __ptext36:	
  9561 ;; *************** function _I2C_Master_Write *****************
  9562 ;; Defined at:
  9563 ;;		line 54 in file "I2C.c"
  9564 ;; Parameters:    Size  Location     Type
  9565 ;;  d               2    0[COMMON] unsigned int 
  9566 ;; Auto vars:     Size  Location     Type
  9567 ;;		None
  9568 ;; Return value:  Size  Location     Type
  9569 ;;                  1    wreg      void 
  9570 ;; Registers used:
  9571 ;;		wreg, status,2, status,0, pclath, cstack
  9572 ;; Tracked objects:
  9573 ;;		On entry : 0/0
  9574 ;;		On exit  : 0/0
  9575 ;;		Unchanged: 0/0
  9576 ;; Data sizes:     COMMON   BANK0   BANK1   BANK3   BANK2
  9577 ;;      Params:         2       0       0       0       0
  9578 ;;      Locals:         0       0       0       0       0
  9579 ;;      Temps:          0       0       0       0       0
  9580 ;;      Totals:         2       0       0       0       0
  9581 ;;Total ram usage:        2 bytes
  9582 ;; Hardware stack levels used: 1
  9583 ;; Hardware stack levels required when called: 1
  9584 ;; This function calls:
  9585 ;;		_I2C_Master_Wait
  9586 ;; This function is called by:
  9587 ;;		_RTC
  9588 ;;		_AHT10_Init
  9589 ;;		_AHT10_Read
  9590 ;;		_AHT10_Soft_Reset
  9591 ;;		_TSL2561_Init
  9592 ;;		_TSL2561_Read
  9593 ;; This function uses a non-reentrant model
  9594 ;;
  9595                           
  9596     1183                     _I2C_Master_Write:	
  9597                           ;psect for function _I2C_Master_Write
  9598                           
  9599     1183                     l3043:	
  9600                           ;incstack = 0
  9601                           ; Regs used in _I2C_Master_Write: [wreg+status,2+status,0+pclath+cstack]
  9602                           
  9603                           
  9604                           ;I2C.c: 54: void I2C_Master_Write(unsigned d);I2C.c: 55: {;I2C.c: 56:     I2C_Master_Wai
      +                          t();
  9605     1183  160A  118A  218D  160A  118A  	fcall	_I2C_Master_Wait
  9606     1188                     l3045:
  9607                           
  9608                           ;I2C.c: 57:     SSPBUF = d;
  9609     1188  0870               	movf	I2C_Master_Write@d,w
  9610     1189  1283               	bcf	3,5	;RP0=0, select bank0
  9611     118A  1303               	bcf	3,6	;RP1=0, select bank0
  9612     118B  0093               	movwf	19	;volatile
  9613     118C                     l47:
  9614     118C  0008               	return
  9615     118D                     __end_of_I2C_Master_Write:
  9616                           
  9617                           	psect	text37
  9618     117A                     __ptext37:	
  9619 ;; *************** function _I2C_Master_Stop *****************
  9620 ;; Defined at:
  9621 ;;		line 44 in file "I2C.c"
  9622 ;; Parameters:    Size  Location     Type
  9623 ;;		None
  9624 ;; Auto vars:     Size  Location     Type
  9625 ;;		None
  9626 ;; Return value:  Size  Location     Type
  9627 ;;                  1    wreg      void 
  9628 ;; Registers used:
  9629 ;;		wreg, status,2, status,0, pclath, cstack
  9630 ;; Tracked objects:
  9631 ;;		On entry : 0/0
  9632 ;;		On exit  : 0/0
  9633 ;;		Unchanged: 0/0
  9634 ;; Data sizes:     COMMON   BANK0   BANK1   BANK3   BANK2
  9635 ;;      Params:         0       0       0       0       0
  9636 ;;      Locals:         0       0       0       0       0
  9637 ;;      Temps:          0       0       0       0       0
  9638 ;;      Totals:         0       0       0       0       0
  9639 ;;Total ram usage:        0 bytes
  9640 ;; Hardware stack levels used: 1
  9641 ;; Hardware stack levels required when called: 1
  9642 ;; This function calls:
  9643 ;;		_I2C_Master_Wait
  9644 ;; This function is called by:
  9645 ;;		_RTC
  9646 ;;		_AHT10_Init
  9647 ;;		_AHT10_Read
  9648 ;;		_AHT10_Soft_Reset
  9649 ;;		_TSL2561_Init
  9650 ;;		_TSL2561_Read
  9651 ;; This function uses a non-reentrant model
  9652 ;;
  9653                           
  9654     117A                     _I2C_Master_Stop:	
  9655                           ;psect for function _I2C_Master_Stop
  9656                           
  9657     117A                     l3039:	
  9658                           ;incstack = 0
  9659                           ; Regs used in _I2C_Master_Stop: [wreg+status,2+status,0+pclath+cstack]
  9660                           
  9661                           
  9662                           ;I2C.c: 46:     I2C_Master_Wait();
  9663     117A  160A  118A  218D  160A  118A  	fcall	_I2C_Master_Wait
  9664     117F                     l3041:
  9665                           
  9666                           ;I2C.c: 47:     SSPCON2bits.PEN = 1;
  9667     117F  1683               	bsf	3,5	;RP0=1, select bank1
  9668     1180  1303               	bcf	3,6	;RP1=0, select bank1
  9669     1181  1511               	bsf	17,2	;volatile
  9670     1182                     l44:
  9671     1182  0008               	return
  9672     1183                     __end_of_I2C_Master_Stop:
  9673                           
  9674                           	psect	text38
  9675     1171                     __ptext38:	
  9676 ;; *************** function _I2C_Master_Start *****************
  9677 ;; Defined at:
  9678 ;;		line 28 in file "I2C.c"
  9679 ;; Parameters:    Size  Location     Type
  9680 ;;		None
  9681 ;; Auto vars:     Size  Location     Type
  9682 ;;		None
  9683 ;; Return value:  Size  Location     Type
  9684 ;;                  1    wreg      void 
  9685 ;; Registers used:
  9686 ;;		wreg, status,2, status,0, pclath, cstack
  9687 ;; Tracked objects:
  9688 ;;		On entry : 0/0
  9689 ;;		On exit  : 0/0
  9690 ;;		Unchanged: 0/0
  9691 ;; Data sizes:     COMMON   BANK0   BANK1   BANK3   BANK2
  9692 ;;      Params:         0       0       0       0       0
  9693 ;;      Locals:         0       0       0       0       0
  9694 ;;      Temps:          0       0       0       0       0
  9695 ;;      Totals:         0       0       0       0       0
  9696 ;;Total ram usage:        0 bytes
  9697 ;; Hardware stack levels used: 1
  9698 ;; Hardware stack levels required when called: 1
  9699 ;; This function calls:
  9700 ;;		_I2C_Master_Wait
  9701 ;; This function is called by:
  9702 ;;		_RTC
  9703 ;;		_AHT10_Init
  9704 ;;		_AHT10_Read
  9705 ;;		_AHT10_Soft_Reset
  9706 ;;		_TSL2561_Init
  9707 ;;		_TSL2561_Read
  9708 ;; This function uses a non-reentrant model
  9709 ;;
  9710                           
  9711     1171                     _I2C_Master_Start:	
  9712                           ;psect for function _I2C_Master_Start
  9713                           
  9714     1171                     l3031:	
  9715                           ;incstack = 0
  9716                           ; Regs used in _I2C_Master_Start: [wreg+status,2+status,0+pclath+cstack]
  9717                           
  9718                           
  9719                           ;I2C.c: 30:     I2C_Master_Wait();
  9720     1171  160A  118A  218D  160A  118A  	fcall	_I2C_Master_Wait
  9721     1176                     l3033:
  9722                           
  9723                           ;I2C.c: 31:     SSPCON2bits.SEN = 1;
  9724     1176  1683               	bsf	3,5	;RP0=1, select bank1
  9725     1177  1303               	bcf	3,6	;RP1=0, select bank1
  9726     1178  1411               	bsf	17,0	;volatile
  9727     1179                     l38:
  9728     1179  0008               	return
  9729     117A                     __end_of_I2C_Master_Start:
  9730                           
  9731                           	psect	text39
  9732     1168                     __ptext39:	
  9733 ;; *************** function _I2C_Master_RepeatedStart *****************
  9734 ;; Defined at:
  9735 ;;		line 36 in file "I2C.c"
  9736 ;; Parameters:    Size  Location     Type
  9737 ;;		None
  9738 ;; Auto vars:     Size  Location     Type
  9739 ;;		None
  9740 ;; Return value:  Size  Location     Type
  9741 ;;                  1    wreg      void 
  9742 ;; Registers used:
  9743 ;;		wreg, status,2, status,0, pclath, cstack
  9744 ;; Tracked objects:
  9745 ;;		On entry : 0/0
  9746 ;;		On exit  : 0/0
  9747 ;;		Unchanged: 0/0
  9748 ;; Data sizes:     COMMON   BANK0   BANK1   BANK3   BANK2
  9749 ;;      Params:         0       0       0       0       0
  9750 ;;      Locals:         0       0       0       0       0
  9751 ;;      Temps:          0       0       0       0       0
  9752 ;;      Totals:         0       0       0       0       0
  9753 ;;Total ram usage:        0 bytes
  9754 ;; Hardware stack levels used: 1
  9755 ;; Hardware stack levels required when called: 1
  9756 ;; This function calls:
  9757 ;;		_I2C_Master_Wait
  9758 ;; This function is called by:
  9759 ;;		_RTC
  9760 ;;		_AHT10_Init
  9761 ;;		_AHT10_Read
  9762 ;;		_TSL2561_Read
  9763 ;; This function uses a non-reentrant model
  9764 ;;
  9765                           
  9766     1168                     _I2C_Master_RepeatedStart:	
  9767                           ;psect for function _I2C_Master_RepeatedStart
  9768                           
  9769     1168                     l3035:	
  9770                           ;incstack = 0
  9771                           ; Regs used in _I2C_Master_RepeatedStart: [wreg+status,2+status,0+pclath+cstack]
  9772                           
  9773                           
  9774                           ;I2C.c: 38:     I2C_Master_Wait();
  9775     1168  160A  118A  218D  160A  118A  	fcall	_I2C_Master_Wait
  9776     116D                     l3037:
  9777                           
  9778                           ;I2C.c: 39:     SSPCON2bits.RSEN = 1;
  9779     116D  1683               	bsf	3,5	;RP0=1, select bank1
  9780     116E  1303               	bcf	3,6	;RP1=0, select bank1
  9781     116F  1491               	bsf	17,1	;volatile
  9782     1170                     l41:
  9783     1170  0008               	return
  9784     1171                     __end_of_I2C_Master_RepeatedStart:
  9785                           
  9786                           	psect	text40
  9787     1282                     __ptext40:	
  9788 ;; *************** function _I2C_Master_Read *****************
  9789 ;; Defined at:
  9790 ;;		line 63 in file "I2C.c"
  9791 ;; Parameters:    Size  Location     Type
  9792 ;;  a               2    0[COMMON] unsigned short 
  9793 ;; Auto vars:     Size  Location     Type
  9794 ;;  temp            2    4[COMMON] unsigned short 
  9795 ;; Return value:  Size  Location     Type
  9796 ;;                  2    0[COMMON] unsigned short 
  9797 ;; Registers used:
  9798 ;;		wreg, status,2, status,0, pclath, cstack
  9799 ;; Tracked objects:
  9800 ;;		On entry : 0/0
  9801 ;;		On exit  : 0/0
  9802 ;;		Unchanged: 0/0
  9803 ;; Data sizes:     COMMON   BANK0   BANK1   BANK3   BANK2
  9804 ;;      Params:         2       0       0       0       0
  9805 ;;      Locals:         2       0       0       0       0
  9806 ;;      Temps:          2       0       0       0       0
  9807 ;;      Totals:         6       0       0       0       0
  9808 ;;Total ram usage:        6 bytes
  9809 ;; Hardware stack levels used: 1
  9810 ;; Hardware stack levels required when called: 1
  9811 ;; This function calls:
  9812 ;;		_I2C_Master_Wait
  9813 ;; This function is called by:
  9814 ;;		_RTC
  9815 ;;		_AHT10_Init
  9816 ;;		_AHT10_Read
  9817 ;;		_TSL2561_Read
  9818 ;; This function uses a non-reentrant model
  9819 ;;
  9820                           
  9821     1282                     _I2C_Master_Read:	
  9822                           ;psect for function _I2C_Master_Read
  9823                           
  9824     1282                     l3047:	
  9825                           ;incstack = 0
  9826                           ; Regs used in _I2C_Master_Read: [wreg+status,2+status,0+pclath+cstack]
  9827                           
  9828                           
  9829                           ;I2C.c: 63: unsigned short I2C_Master_Read(unsigned short a);I2C.c: 64: {;I2C.c: 65:    
      +                           unsigned short temp;;I2C.c: 66:     I2C_Master_Wait();
  9830     1282  160A  118A  218D  160A  118A  	fcall	_I2C_Master_Wait
  9831     1287                     l3049:
  9832                           
  9833                           ;I2C.c: 67:     SSPCON2bits.RCEN = 1;
  9834     1287  1683               	bsf	3,5	;RP0=1, select bank1
  9835     1288  1303               	bcf	3,6	;RP1=0, select bank1
  9836     1289  1591               	bsf	17,3	;volatile
  9837                           
  9838                           ;I2C.c: 68:     I2C_Master_Wait();
  9839     128A  160A  118A  218D  160A  118A  	fcall	_I2C_Master_Wait
  9840     128F                     l3051:
  9841                           
  9842                           ;I2C.c: 69:     temp = SSPBUF;
  9843     128F  1283               	bcf	3,5	;RP0=0, select bank0
  9844     1290  1303               	bcf	3,6	;RP1=0, select bank0
  9845     1291  0813               	movf	19,w	;volatile
  9846     1292  00F2               	movwf	??_I2C_Master_Read
  9847     1293  01F3               	clrf	??_I2C_Master_Read+1
  9848     1294  0872               	movf	??_I2C_Master_Read,w
  9849     1295  00F4               	movwf	I2C_Master_Read@temp
  9850     1296  0873               	movf	??_I2C_Master_Read+1,w
  9851     1297  00F5               	movwf	I2C_Master_Read@temp+1
  9852     1298                     l3053:
  9853                           
  9854                           ;I2C.c: 70:     I2C_Master_Wait();
  9855     1298  160A  118A  218D  160A  118A  	fcall	_I2C_Master_Wait
  9856     129D                     l3055:
  9857                           
  9858                           ;I2C.c: 71:     if(a == 1){
  9859     129D  0370               	decf	I2C_Master_Read@a,w
  9860     129E  0471               	iorwf	I2C_Master_Read@a+1,w
  9861     129F  1D03               	btfss	3,2
  9862     12A0  2AA2               	goto	u3891
  9863     12A1  2AA3               	goto	u3890
  9864     12A2                     u3891:
  9865     12A2  2AA7               	goto	l50
  9866     12A3                     u3890:
  9867     12A3                     l3057:
  9868                           
  9869                           ;I2C.c: 72:         SSPCON2bits.ACKDT = 0;
  9870     12A3  1683               	bsf	3,5	;RP0=1, select bank1
  9871     12A4  1303               	bcf	3,6	;RP1=0, select bank1
  9872     12A5  1291               	bcf	17,5	;volatile
  9873                           
  9874                           ;I2C.c: 73:     }else{
  9875     12A6  2AAA               	goto	l51
  9876     12A7                     l50:
  9877                           
  9878                           ;I2C.c: 74:         SSPCON2bits.ACKDT = 1;
  9879     12A7  1683               	bsf	3,5	;RP0=1, select bank1
  9880     12A8  1303               	bcf	3,6	;RP1=0, select bank1
  9881     12A9  1691               	bsf	17,5	;volatile
  9882     12AA                     l51:	
  9883                           ;I2C.c: 75:     }
  9884                           
  9885                           
  9886                           ;I2C.c: 76:     SSPCON2bits.ACKEN = 1;
  9887     12AA  1611               	bsf	17,4	;volatile
  9888     12AB                     l3059:
  9889                           
  9890                           ;I2C.c: 77:     return temp;
  9891     12AB  0875               	movf	I2C_Master_Read@temp+1,w
  9892     12AC  00F1               	movwf	?_I2C_Master_Read+1
  9893     12AD  0874               	movf	I2C_Master_Read@temp,w
  9894     12AE  00F0               	movwf	?_I2C_Master_Read
  9895     12AF                     l52:
  9896     12AF  0008               	return
  9897     12B0                     __end_of_I2C_Master_Read:
  9898                           
  9899                           	psect	text41
  9900     118D                     __ptext41:	
  9901 ;; *************** function _I2C_Master_Wait *****************
  9902 ;; Defined at:
  9903 ;;		line 21 in file "I2C.c"
  9904 ;; Parameters:    Size  Location     Type
  9905 ;;		None
  9906 ;; Auto vars:     Size  Location     Type
  9907 ;;		None
  9908 ;; Return value:  Size  Location     Type
  9909 ;;                  1    wreg      void 
  9910 ;; Registers used:
  9911 ;;		wreg, status,2
  9912 ;; Tracked objects:
  9913 ;;		On entry : 0/0
  9914 ;;		On exit  : 0/0
  9915 ;;		Unchanged: 0/0
  9916 ;; Data sizes:     COMMON   BANK0   BANK1   BANK3   BANK2
  9917 ;;      Params:         0       0       0       0       0
  9918 ;;      Locals:         0       0       0       0       0
  9919 ;;      Temps:          0       0       0       0       0
  9920 ;;      Totals:         0       0       0       0       0
  9921 ;;Total ram usage:        0 bytes
  9922 ;; Hardware stack levels used: 1
  9923 ;; This function calls:
  9924 ;;		Nothing
  9925 ;; This function is called by:
  9926 ;;		_I2C_Master_Start
  9927 ;;		_I2C_Master_RepeatedStart
  9928 ;;		_I2C_Master_Stop
  9929 ;;		_I2C_Master_Write
  9930 ;;		_I2C_Master_Read
  9931 ;; This function uses a non-reentrant model
  9932 ;;
  9933                           
  9934     118D                     _I2C_Master_Wait:	
  9935                           ;psect for function _I2C_Master_Wait
  9936                           
  9937     118D                     l2527:	
  9938                           ;incstack = 0
  9939                           ; Regs used in _I2C_Master_Wait: [wreg+status,2]
  9940                           
  9941     118D                     l32:	
  9942                           ;I2C.c: 23:     while ((SSPSTAT & 0x04) || (SSPCON2 & 0x1F));
  9943                           
  9944     118D  1683               	bsf	3,5	;RP0=1, select bank1
  9945     118E  1303               	bcf	3,6	;RP1=0, select bank1
  9946     118F  1914               	btfsc	20,2	;volatile
  9947     1190  2992               	goto	u2671
  9948     1191  2993               	goto	u2670
  9949     1192                     u2671:
  9950     1192  298D               	goto	l32
  9951     1193                     u2670:
  9952     1193                     l2529:
  9953     1193  0811               	movf	17,w	;volatile
  9954     1194  391F               	andlw	31
  9955     1195  1D03               	btfss	3,2
  9956     1196  2998               	goto	u2681
  9957     1197  2999               	goto	u2680
  9958     1198                     u2681:
  9959     1198  298D               	goto	l32
  9960     1199                     u2680:
  9961     1199                     l35:
  9962     1199  0008               	return
  9963     119A                     __end_of_I2C_Master_Wait:
  9964     007E                     btemp	set	126	;btemp
  9965     007E                     wtemp0	set	126
  9966                           
  9967                           	psect	idloc
  9968                           
  9969                           ;Config register IDLOC0 @ 0x2000
  9970                           ;	unspecified, using default values
  9971     2000                     	org	8192
  9972     2000  3FFF               	dw	16383
  9973                           
  9974                           ;Config register IDLOC1 @ 0x2001
  9975                           ;	unspecified, using default values
  9976     2001                     	org	8193
  9977     2001  3FFF               	dw	16383
  9978                           
  9979                           ;Config register IDLOC2 @ 0x2002
  9980                           ;	unspecified, using default values
  9981     2002                     	org	8194
  9982     2002  3FFF               	dw	16383
  9983                           
  9984                           ;Config register IDLOC3 @ 0x2003
  9985                           ;	unspecified, using default values
  9986     2003                     	org	8195
  9987     2003  3FFF               	dw	16383
  9988                           
  9989                           	psect	config
  9990                           
  9991                           ;Config register CONFIG1 @ 0x2007
  9992                           ;	Oscillator Selection bits
  9993                           ;	FOSC = INTRC_NOCLKOUT, INTOSCIO oscillator: I/O function on RA6/OSC2/CLKOUT pin, I/O f
      +                          unction on RA7/OSC1/CLKIN
  9994                           ;	Watchdog Timer Enable bit
  9995                           ;	WDTE = OFF, WDT disabled and can be enabled by SWDTEN bit of the WDTCON register
  9996                           ;	Power-up Timer Enable bit
  9997                           ;	PWRTE = OFF, PWRT disabled
  9998                           ;	RE3/MCLR pin function select bit
  9999                           ;	MCLRE = OFF, RE3/MCLR pin function is digital input, MCLR internally tied to VDD
 10000                           ;	Code Protection bit
 10001                           ;	CP = OFF, Program memory code protection is disabled
 10002                           ;	Data Code Protection bit
 10003                           ;	CPD = OFF, Data memory code protection is disabled
 10004                           ;	Brown Out Reset Selection bits
 10005                           ;	BOREN = OFF, BOR disabled
 10006                           ;	Internal External Switchover bit
 10007                           ;	IESO = OFF, Internal/External Switchover mode is disabled
 10008                           ;	Fail-Safe Clock Monitor Enabled bit
 10009                           ;	FCMEN = OFF, Fail-Safe Clock Monitor is disabled
 10010                           ;	Low Voltage Programming Enable bit
 10011                           ;	LVP = OFF, RB3 pin has digital I/O, HV on MCLR must be used for programming
 10012                           ;	In-Circuit Debugger Mode bit
 10013                           ;	DEBUG = 0x1, unprogramme 10014     2007                     	org	8199
 10015     2007  20D4               	dw	8404
 10016                           
 10017                           ;Config register CONFIG2 @ 0x2008
 10018                           ;	Brown-out Reset Selection bit
 10019                           ;	BOR4V = BOR40V, Brown-out Reset set to 4.0V
 10020                           ;	Flash Program Memory Self Write Enable bits
 10021                           ;	WRT = OFF, Write protection off
 10022     2008                     	org	8200
 10023     2008  3FFF               	dw	16383

Data Sizes:
    Strings     15
    Constant    10
    Data        0
    BSS         214
    Persistent  0
    Stack       0

Auto Spaces:
    Space          Size  Autos    Used
    COMMON           14     14      14
    BANK0            80     74      80
    BANK1            80     33      76
    BANK3            96      0      69
    BANK2            96      0      96

Pointer List with Targets:

    sprintf@f	PTR const unsigned char  size(1) Largest target is 3
		 -> STR_3(CODE[3]), STR_2(CODE[3]), STR_1(CODE[3]), 

    sprintf@sp	PTR unsigned char  size(1) Largest target is 48
		 -> bufferch2(BANK2[48]), bufferch1(BANK2[48]), bufferch0(BANK3[48]), 

    sprintf@ap	PTR void [1] size(1) Largest target is 2
		 -> ?_sprintf(BANK0[2]), 

    cadena@txt	PTR unsigned char  size(1) Largest target is 15
		 -> bufferTotal(BANK3[15]), 

    floattostr@cadena_	PTR unsigned char  size(1) Largest target is 5
		 -> buffer(BANK1[5]), 

    Lcd_Write_String@a	PTR unsigned char  size(2) Largest target is 10
		 -> STR_5(CODE[6]), STR_4(CODE[6]), buffTime(BANK1[10]), buffer(BANK1[5]), 


Critical Paths under _main in COMMON

    _I2C_Master_Init->___lldiv
    _sprintf->___lwmod
    ___lwmod->___lwdiv
    _TSL2561_Init->_I2C_Master_Write
    _SendESP->_cadena
    _RTC->_Lcd_Write_String
    _Lcd_Init->_Lcd_Cmd
    _DCOnOff->___fltol
    _AHT10_Soft_Reset->_I2C_Master_Write
    _AHT10_Read->___xxtofl
    _floattostr->___xxtofl
    ___flsub->___xxtofl
    ___fladd->___fldiv
    ___flmul->___fldiv
    _Lcd_Write_String->_Lcd_Write_Char
    _Lcd_Write_Char->_Lcd_Port
    _Lcd_Set_Cursor->_Lcd_Cmd
    _Lcd_Cmd->_Lcd_Port
    _AHT10_Init->_I2C_Master_Read

Critical Paths under _main in BANK0

    _setup->_I2C_Master_Init
    _TSL2561_Read->_sprintf
    _AHT10_Read->_floattostr
    _floattostr->___flsub
    ___flsub->___fladd
    ___fladd->___flmul
    ___flmul->___fldiv

Critical Paths under _main in BANK1

    _main->_AHT10_Read
    _AHT10_Read->_floattostr

Critical Paths under _main in BANK3

    None.

Critical Paths under _main in BANK2

    None.

Call Graph Tables:

 ---------------------------------------------------------------------------------
 (Depth) Function   	        Calls       Base Space   Used Autos Params    Refs
 ---------------------------------------------------------------------------------
 (0) _main                                                 0     0      0   48887
                         _AHT10_Init
                         _AHT10_Read
                   _AHT10_Soft_Reset
                            _DCOnOff
                           _Lcd_Init
                                _RTC
                            _SendESP
                       _TSL2561_Init
                       _TSL2561_Read
                              _setup
 ---------------------------------------------------------------------------------
 (1) _setup                                                0     0      0     608
                    _I2C_Master_Init
                     _UART_RX_config
                     _UART_TX_config
 ---------------------------------------------------------------------------------
 (2) _UART_TX_config                                       2     0      2      98
                                              0 COMMON     2     0      2
 ---------------------------------------------------------------------------------
 (2) _UART_RX_config                                       2     0      2      98
                                              0 COMMON     2     0      2
 ---------------------------------------------------------------------------------
 (2) _I2C_Master_Init                                      8     4      4     412
                                              0 BANK0      8     4      4
                            ___lldiv
 ---------------------------------------------------------------------------------
 (3) ___lldiv                                             14     6      8     314
                                              0 COMMON    14     6      8
 ---------------------------------------------------------------------------------
 (1) _TSL2561_Read                                         4     4      0    6434
                                             13 BANK0      4     4      0
                    _I2C_Master_Read
           _I2C_Master_RepeatedStart
                   _I2C_Master_Start
                    _I2C_Master_Stop
                   _I2C_Master_Write
                     _Lcd_Set_Cursor
                   _Lcd_Write_String
                            _sprintf
 ---------------------------------------------------------------------------------
 (2) _sprintf                                             21    18      3    1339
                                              0 BANK0     13    10      3
                            ___lwdiv
                            ___lwmod
 ---------------------------------------------------------------------------------
 (3) ___lwmod                                              6     2      4     311
                                              8 COMMON     6     2      4
                            ___lwdiv (ARG)
 ---------------------------------------------------------------------------------
 (3) ___lwdiv                                              8     4      4     314
                                              0 COMMON     8     4      4
 ---------------------------------------------------------------------------------
 (1) _TSL2561_Init                                         3     3      0    2682
                                              2 COMMON     3     3      0
                   _I2C_Master_Start
                    _I2C_Master_Stop
                   _I2C_Master_Write
 ---------------------------------------------------------------------------------
 (1) _SendESP                                              0     0      0     745
                          _NumtoChar
                    _UART_write_char
                             _cadena
 ---------------------------------------------------------------------------------
 (2) _cadena                                               7     7      0     169
                                              0 COMMON     7     7      0
 ---------------------------------------------------------------------------------
 (2) _UART_write_char                                      1     1      0      22
                                              0 COMMON     1     1      0
 ---------------------------------------------------------------------------------
 (1) _RTC                                                  0     0      0    5649
                    _I2C_Master_Read
           _I2C_Master_RepeatedStart
                   _I2C_Master_Start
                    _I2C_Master_Stop
                   _I2C_Master_Write
                     _Lcd_Set_Cursor
                   _Lcd_Write_String
                          _NumtoChar
 ---------------------------------------------------------------------------------
 (2) _NumtoChar                                            2     0      2     554
                                              0 COMMON     2     0      2
 ---------------------------------------------------------------------------------
 (1) _Lcd_Init                                             2     2      0     374
                                              4 COMMON     2     2      0
                            _Lcd_Cmd
                           _Lcd_Port
 ---------------------------------------------------------------------------------
 (1) _DCOnOff                                              0     0      0     381
                            ___fltol
 ---------------------------------------------------------------------------------
 (1) _AHT10_Soft_Reset                                     2     2      0    2682
                                              2 COMMON     2     2      0
                   _I2C_Master_Start
                    _I2C_Master_Stop
                   _I2C_Master_Write
 ---------------------------------------------------------------------------------
 (1) _AHT10_Read                                          22    22      0   25388
                                             12 BANK1     21    21      0
                    _I2C_Master_Read
           _I2C_Master_RepeatedStart
                   _I2C_Master_Start
                    _I2C_Master_Stop
                   _I2C_Master_Write
                     _Lcd_Set_Cursor
                   _Lcd_Write_String
                            ___fladd
                            ___fldiv
                            ___flmul
                           ___xxtofl
                         _floattostr
 ---------------------------------------------------------------------------------
 (2) _floattostr                                          19    13      6   12615
                                             67 BANK0      7     1      6
                                              0 BANK1     12    12      0
                            ___fladd
                            ___fldiv
                             ___flge
                            ___flmul
                            ___flneg
                            ___flsub
                            ___fltol
                           ___xxtofl
 ---------------------------------------------------------------------------------
 (3) ___xxtofl                                            14    10      4     550
                                              0 COMMON    14    10      4
 ---------------------------------------------------------------------------------
 (2) ___fltol                                             10     6      4     381
                                              0 COMMON    10     6      4
 ---------------------------------------------------------------------------------
 (3) ___flsub                                              8     0      8    2637
                                             59 BANK0      8     0      8
                            ___fladd
                           ___xxtofl (ARG)
 ---------------------------------------------------------------------------------
 (4) ___fladd                                             20    12      8    2440
                                             39 BANK0     20    12      8
                            ___fldiv (ARG)
                            ___flmul (ARG)
 ---------------------------------------------------------------------------------
 (3) ___flneg                                              4     0      4     121
                                              0 COMMON     4     0      4
 ---------------------------------------------------------------------------------
 (3) ___flmul                                             26    18      8    2721
                                             13 BANK0     26    18      8
                          __Umul8_16
                            ___fldiv (ARG)
 ---------------------------------------------------------------------------------
 (4) __Umul8_16                                            9     7      2     799
                                              0 COMMON     9     7      2
 ---------------------------------------------------------------------------------
 (3) ___flge                                              12     4      8     942
                                              0 COMMON    12     4      8
 ---------------------------------------------------------------------------------
 (3) ___fldiv                                             26    18      8    1729
                                              0 COMMON    13     5      8
                                              0 BANK0     13    13      0
 ---------------------------------------------------------------------------------
 (2) _Lcd_Write_String                                     7     5      2     592
                                              3 COMMON     7     5      2
                     _Lcd_Write_Char
 ---------------------------------------------------------------------------------
 (3) _Lcd_Write_Char                                       2     2      0     198
                                              1 COMMON     2     2      0
                           _Lcd_Port
 ---------------------------------------------------------------------------------
 (2) _Lcd_Set_Cursor                                       5     4      1     560
                                              4 COMMON     3     2      1
                            _Lcd_Cmd
 ---------------------------------------------------------------------------------
 (3) _Lcd_Cmd                                              3     3      0     198
                                              1 COMMON     3     3      0
                           _Lcd_Port
 ---------------------------------------------------------------------------------
 (4) _Lcd_Port                                             1     1      0     176
                                              0 COMMON     1     1      0
 ---------------------------------------------------------------------------------
 (1) _AHT10_Init                                           3     3      0    3944
                                              6 COMMON     2     2      0
                    _I2C_Master_Read
           _I2C_Master_RepeatedStart
                   _I2C_Master_Start
                    _I2C_Master_Stop
                   _I2C_Master_Write
 ---------------------------------------------------------------------------------
 (2) _I2C_Master_Write                                     2     0      2    2682
                                              0 COMMON     2     0      2
                    _I2C_Master_Wait
 ---------------------------------------------------------------------------------
 (2) _I2C_Master_Stop                                      0     0      0       0
                    _I2C_Master_Wait
 ---------------------------------------------------------------------------------
 (2) _I2C_Master_Start                                     0     0      0       0
                    _I2C_Master_Wait
 ---------------------------------------------------------------------------------
 (2) _I2C_Master_RepeatedStart                             0     0      0       0
                    _I2C_Master_Wait
 ---------------------------------------------------------------------------------
 (2) _I2C_Master_Read                                      6     4      2    1261
                                              0 COMMON     6     4      2
                    _I2C_Master_Wait
 ---------------------------------------------------------------------------------
 (3) _I2C_Master_Wait                                      0     0      0       0
 ---------------------------------------------------------------------------------
 Estimated maximum stack depth 4
 ---------------------------------------------------------------------------------

 Call Graph Graphs:

 _main (ROOT)
   _AHT10_Init
     _I2C_Master_Read
       _I2C_Master_Wait
     _I2C_Master_RepeatedStart
       _I2C_Master_Wait
     _I2C_Master_Start
       _I2C_Master_Wait
     _I2C_Master_Stop
       _I2C_Master_Wait
     _I2C_Master_Write
       _I2C_Master_Wait
   _AHT10_Read
     _I2C_Master_Read
     _I2C_Master_RepeatedStart
     _I2C_Master_Start
     _I2C_Master_Stop
     _I2C_Master_Write
     _Lcd_Set_Cursor
       _Lcd_Cmd
         _Lcd_Port
     _Lcd_Write_String
       _Lcd_Write_Char
         _Lcd_Port
     ___fladd
       ___fldiv (ARG)
       ___flmul (ARG)
         __Umul8_16
         ___fldiv (ARG)
     ___fldiv
     ___flmul
     ___xxtofl
     _floattostr
       ___fladd
       ___fldiv
       ___flge
       ___flmul
       ___flneg
       ___flsub
         ___fladd
         ___xxtofl (ARG)
       ___fltol
       ___xxtofl
   _AHT10_Soft_Reset
     _I2C_Master_Start
     _I2C_Master_Stop
     _I2C_Master_Write
   _DCOnOff
     ___fltol
   _Lcd_Init
     _Lcd_Cmd
     _Lcd_Port
   _RTC
     _I2C_Master_Read
     _I2C_Master_RepeatedStart
     _I2C_Master_Start
     _I2C_Master_Stop
     _I2C_Master_Write
     _Lcd_Set_Cursor
     _Lcd_Write_String
     _NumtoChar
   _SendESP
     _NumtoChar
     _UART_write_char
     _cadena
   _TSL2561_Init
     _I2C_Master_Start
     _I2C_Master_Stop
     _I2C_Master_Write
   _TSL2561_Read
     _I2C_Master_Read
     _I2C_Master_RepeatedStart
     _I2C_Master_Start
     _I2C_Master_Stop
     _I2C_Master_Write
     _Lcd_Set_Cursor
     _Lcd_Write_String
     _sprintf
       ___lwdiv
       ___lwmod
         ___lwdiv (ARG)
   _setup
     _I2C_Master_Init
       ___lldiv
     _UART_RX_config
     _UART_TX_config

 Address spaces:
Name               Size   Autos  Total    Cost      Usage
BITCOMMON            E      0       0       0        0.0%
EEDATA             100      0       0       0        0.0%
NULL                 0      0       0       0        0.0%
CODE                 0      0       0       0        0.0%
COMMON               E      E       E       1      100.0%
BITSFR0              0      0       0       1        0.0%
SFR0                 0      0       0       1        0.0%
BITSFR1              0      0       0       2        0.0%
SFR1                 0      0       0       2        0.0%
STACK                0      0       0       2        0.0%
ABS                  0      0     14F       3        0.0%
BITBANK0            50      0       0       4        0.0%
BITSFR3              0      0       0       4        0.0%
SFR3                 0      0       0       4        0.0%
BANK0               50     4A      50       5      100.0%
BITSFR2              0      0       0       5        0.0%
SFR2                 0      0       0       5        0.0%
BITBANK1            50      0       0       6        0.0%
BANK1               50     21      4C       7       95.0%
BITBANK3            60      0       0       8        0.0%
BANK3               60      0      45       9       71.9%
BITBANK2            60      0       0      10        0.0%
BANK2               60      0      60      11      100.0%
DATA                 0      0     14F      12        0.0%


Microchip Technology PIC Macro Assembler V2.40 build 20220703182018 
Symbol Table                                                                                   Fri Sep 01 01:07:43 2023

                    ___fldiv@aexp 002C                      ___fldiv@bexp 002B                                 pc 0002  
                    ___fldiv@sign 0024                                l32 118D                                l41 1170  
                              l50 12A7                                l35 1199                                l51 12AA  
                              l52 12AF                                l44 1182                                l29 1381  
                              l38 1179                                l47 118C                                l80 1400  
                              l81 1403                                l90 1425                                l82 1409  
                              l91 1426                                l83 140A                                l92 142C  
                              l84 1410                                l93 142D                                l85 1411  
                              l94 1433                                l86 1417                                l87 1418  
                              l96 1434                                l88 141E                                l89 141F  
                              l99 11EB                                fsr 0004               __Umul8_16@word_mpld 0076  
                             l111 084F                               l120 14B6                               l114 11D1  
                             l108 120B                               l301 01BC                               l310 0BCE  
                             l304 162F                               l224 0494                               l313 12DE  
                             l321 0A0A                               l316 1552                               l326 13F6  
                             l281 127D                               l362 11A7                               l283 1281  
                             l515 006A                               l365 115F                               l286 1313  
                             l295 1474                               l359 11BB                               l298 15BD  
                             l803 0F95                               l475 0910                               l653 16C2  
                             l661 080A                               l830 0DA7                               l814 0FF5  
                             l806 0FD3                               l815 0FFF                               l751 14FA  
                             l656 172E                               l672 1690                               l912 176A  
                             l657 1747                               l665 16A5                               l761 13BB  
                             l850 0D8F                               l818 122F                               l914 17FF  
                             l675 16A5                               l852 0D9D                               l844 0D1D  
                             l828 0C25                               l772 0E03                               l925 17C9  
                             l926 17D5                               l918 17AD                               l880 07CD  
                             l776 0E86                               l793 0F4F                               l785 0FFF  
                             l874 0749                               l778 0E5F                               l868 07D9  
                             l797 0F73                               l887 1244                               l889 1256  
                             _GIE 005F                               _RD0 0040                               _RD1 0041  
                             _RD2 0042                               _RE0 0048                               _RD3 0043  
                             _RE1 0049                               _RD4 0044                               _RD5 0045  
                             _RD6 0046                               _RD7 0047                               _RTC 006B  
                             _ch0 006C                               _ch1 006A                               _ch2 00B6  
                             fsr0 0004                               indf 0000                      ___flmul@aexp 003F  
                    ___flmul@bexp 0040                      ___flmul@sign 003A                      ___flmul@temp 0045  
                    ___flmul@prod 0041                   __end_of_DCOnOff 1282               floattostr@tempo_int 00CB  
                            ?_RTC 0070                      ___fltol@exp1 0079                              l3001 17BF  
                            l3011 17F2                              l3003 17C3                              l2301 13F8  
                            l3013 17F6                              l3005 17CD                              l3101 0244  
                            l3021 134E                              l3031 1171                              l2311 141C  
                            l2303 13FC                              l3015 17F7                              l3007 17D7  
                            l3111 02AC                              l3103 024C                              l3023 1351  
                            l3033 1176                              l3041 117F                              l2313 1423  
                            l2305 1407                              l2401 0E47                              l2321 0DAD  
                            l3009 17ED                              l3121 0311                              l3113 02B6  
                            l3105 0268                              l3025 137E                              l3201 11BA  
                            l3051 128F                              l3035 1168                              l3043 1183  
                            l2315 142A                              l2307 140E                              l2411 0E71  
                            l2403 0E63                              l2331 0DC0                              l2323 0DB1  
                            l3131 0381                              l3123 0349                              l3115 02D4  
                            l3107 0289                              l3211 144A                              l3027 137F  
                            l3019 134A                              l3053 1298                              l3037 116D  
                            l3045 1188                              l2317 1431                              l2309 1415  
                            l2501 0FEA                              l2413 0E7A                              l2405 0E6A  
                            l2341 0DD6                              l2333 0DC8                              l2325 0DB5  
                            l3141 03A0                              l3133 0385                              l3125 0362  
                            l3117 02F5                              l3109 0291                              l3221 115B  
                            l3213 144D                              l3205 1436                              l3301 0895  
                            l3029 1380                              l3055 129D                              l3047 1282  
                            l3039 117A                              l3071 1202                              l3063 11ED  
                            l2511 0FFE                              l2503 0FEB                              l2431 0EBE  
                            l2423 0E98                              l2407 0E6C                              l2415 0E7E  
                            l2351 0DE6                              l2343 0DDC                              l2335 0DC9  
                            l2327 0DB6                              l2319 0DA8                              l3151 03CE  
                            l3143 03A7                              l3135 038D                              l3127 0374  
                            l3119 02FB                              l3231 13BF                              l3215 1456  
                            l3207 1439                              l3311 08EA                              l3057 12A3  
                            l3049 1287                              l3073 1205                              l3065 11F2  
                            l3081 149A                              l2521 124D                              l2513 1231  
                            l2505 0FEF                              l2433 0EC0                              l2425 0EAF  
                            l2417 0E8A                              l2441 0ED3                              l2409 0E70  
                            l2353 0DEB                              l2361 0DFB                              l2345 0DDD  
                            l2329 0DBB                              l2337 0DCB                              l3161 0405  
                            l3153 03E3                              l3145 03AB                              l3137 0393  
                            l3129 037A                              l3401 0A50                              l3225 13BC  
                            l3217 1460                              l3209 143F                              l3313 08EF  
                            l3305 08B1                              l3059 12AB                              l2531 11D3  
                            l3067 11F5                              l3075 1475                              l2523 1252  
                            l2515 1233                              l2507 0FF1                              l2443 0EE9  
                            l2451 0F41                              l2435 0EC4                              l2427 0EB3  
                            l2419 0E8F                              l2371 0E15                              l2363 0E09  
                            l2355 0DF0                              l2347 0DE1                              l2339 0DD3  
                            l2611 1655                              l2603 1630                              l3171 048E  
                            l3163 0409                              l3155 03ED                              l3147 03B3  
                            l3139 039B                              l3091 01EC                              l3083 01BD  
                            l3411 0A74                              l3403 0A59                              l3331 081A  
                            l3251 13C9                              l3243 13C5                              l3235 13C1  
                            l3227 13BD                              l3219 1466                              l3315 08F3  
                            l3307 08BB                              l2533 11D6                              l3069 11FC  
                            l2541 11BD                              l3077 1478                              l2701 0BDD  
                            l2517 123A                              l2509 0FFA                              l2461 0F6E  
                            l2453 0F57                              l2445 0F27                              l2437 0EC5  
                            l2429 0EB7                              l2381 0E1F                              l2373 0E17  
                            l2365 0E0D                              l2357 0DF8                              l2349 0DE5  
                            l2613 1656                              l2605 1639                              l3165 0451  
                            l3157 03F3                              l3149 03C9                              l3093 01F0  
                            l3085 01C8                              l3421 0B9E                              l3413 0A74  
                            l3405 0A5E                              l3333 0829                              l3501 1583  
                            l3309 08BE                              l3317 08FC                              l3173 119A  
                            l3341 12FC                              l2527 118D                              l2535 11DC  
                            l2543 11C0                              l3079 1494                              l2703 0BE2  
                            l2711 0BF2                              l2519 123E                              l2471 0F81  
                            l2463 0F72                              l2455 0F5C                              l2447 0F2D  
                            l2439 0ECE                              l2391 0E29                              l2383 0E21  
                            l2375 0E19                              l2367 0E11                              l2359 0DF9  
                            l2615 165E                              l3167 0470                              l3159 03FF  
                            l3095 0207                              l3087 01CA                              l3423 0BBD  
                            l3415 0A74                              l3407 0A67                              l3351 12B9  
                            l3335 082F                              l3327 080B                              l3263 13CF  
                            l3255 13CB                              l3247 13C7                              l3239 13C3  
                            l3511 15A1                              l3503 1589                              l3319 090C  
                            l3431 099A                              l2551 0005                              l3191 11B3  
                            l3183 11A8                              l3175 11A1                              l3343 1300  
                            l2529 1193                              l3361 15C7                              l2537 11DF  
                            l2545 11C6                              l2721 0C08                              l2713 0BFA  
                            l2705 0BE7                              l2481 0F92                              l2465 0F77  
                            l2473 0F83                              l2449 0F32                              l2393 0E2B  
                            l2385 0E23                              l2377 0E1B                              l2369 0E13  
                            l2633 1685                              l2625 166C                              l2617 1660  
                            l2609 1642                              l3169 0478                              l3089 01E5  
                            l3417 0AE1                              l3409 0A6F                              l3353 12BE  
                            l3521 125F                              l3329 0811                              l3513 15A7  
                            l3505 158F                              l2641 14B9                              l3281 0861  
                            l3441 09E2                              l3433 09A8                              l3425 0911  
                            l2561 0032                              l2553 0015                              l3193 11B4  
                            l3185 11AB                              l3177 11A5                              l3345 1301  
                            l3337 12DF                              l3371 15EC                              l3363 15CC  
                            l2539 11E8                              l2547 11C9                              l2811 0D52  
                            l2803 0D22                              l2723 0C0D                              l2731 0C1D  
                            l2715 0BFF                              l2707 0BEF                              l2491 0FB1  
                            l2467 0F7A                              l2459 0F65                              l2475 0F87  
                            l2395 0E2D                              l2387 0E25                              l2379 0E1D  
                            l2635 1695                              l2619 1664                              l2627 167E  
                            l3099 0223                              l3419 0B3F                              l3355 12C7  
                            l3523 1279                              l3259 13CD                              l3451 006B  
                            l3515 15B5                              l3507 1595                              l2651 14D1  
                            l2643 14BF                              l3291 0887                              l3283 0866  
                            l3275 0853                              l3443 09ED                              l3435 09B6  
                            l3427 096C                              l2563 0044                              l2555 0018  
                            l2571 0062                              l3195 11B5                              l3187 11AF  
                            l3179 11A6                              l3347 130A                              l3339 12EF  
                            l3381 1610                              l3373 15F4                              l3365 15D5  
                            l2549 11CE                              l2821 0D86                              l2805 0D27  
                            l2813 0D58                              l2733 0C2D                              l2741 0C46  
                            l2725 0C12                              l2717 0C03                              l2709 0BF0  
                            l2581 16DE                              l2901 05F2                              l2493 0FCF  
                            l2485 0F9A                              l2477 0F88                              l2469 0F7C  
                            l2389 0E27                              l2397 0E2F                              l2637 169A  
                            l3357 12D0                              l3349 12B0                              l3525 1280  
                            l3269 13D1                              l3461 014C                              l3453 0112  
                            l3517 15B7                              l3509 159B                              l2653 14E2  
                            l2645 14C2                              l2661 14F6                              l3293 088F  
                            l3285 0868                              l3277 0856                              l3445 09F6  
                            l3437 09C4                              l3429 0983                              l2565 0052  
                            l2557 0025                              l3197 11B6                              l3189 11B0  
                            l3541 133C                              l3533 1314                              l3383 1619  
                            l3375 15F9                              l3367 15DE                              l3359 15BE  
                            l2823 0D8E                              l2815 0D65                              l2807 0D35  
                            l2751 0C6E                              l2743 0C4B                              l2735 0C39  
                            l2727 0C1A                              l2719 0C07                              l2591 1746  
                            l2583 16E2                              l2575 16A6                              l2911 067C  
                            l2903 060F                              l2495 0FD8                              l2487 0F9F  
                            l2479 0F8C                              l2399 0E30                              l3519 1257  
                            l3471 0179                              l3463 0159                              l3455 012B  
                            l3391 1545                              l2655 14E8                              l2647 14C9  
                            l2639 14B7                              l2671 1392                              l3295 0893  
                            l3279 085C                              l3447 09FB                              l3439 09DA  
                            l2567 0053                              l2559 0029                              l3199 11B9  
                            l3535 132D                              l3385 1621                              l3377 15FE  
                            l3369 15E3                              l2825 0D93                              l2817 0D73  
                            l2809 0D39                              l2761 0C97                              l2753 0C76  
                            l2737 0C3D                              l2729 0C1B                              l2585 1706  
                            l2577 16BA                              l2921 070C                              l2913 06A7  
                            l2905 0626                              l2841 04A2                              l2497 0FDD  
                            l2489 0FAD                              l3393 0A0B                              l3481 01AB  
                            l3473 0185                              l3465 015F                              l3457 0139  
                            l2657 14E9                              l2649 14CD                              l2681 13B1  
                            l2673 1396                              l2665 1382                              l3289 086D  
                            l3449 0A04                              l2569 005C                              l3537 1332  
                            l3387 1626                              l3379 1607                              l2827 0D97  
                            l2819 0D82                              l2771 0CB8                              l2763 0C9B  
                            l2755 0C7E                              l2747 0C54                              l2587 170A  
                            l2579 16D6                              l2923 0715                              l2931 0729  
                            l2915 06CD                              l2907 0643                              l2851 04B7  
                            l2843 04A3                              l2835 0495                              l2595 0800  
                            l2499 0FE5                              l3395 0A38                              l3483 01B3  
                            l3475 0191                              l3467 016B                              l3459 0146  
                            l3491 1565                              l2659 14F0                              l2675 139A  
                            l2667 1388                              l2683 13B7                              l3539 1337  
                            l2829 0D99                              l2781 0CE0                              l2773 0CCC  
                            l2765 0C9C                              l2757 0C80                              l2749 0C66  
                            l2693 0BCF                              l2589 1744                              l2933 072D  
                            l2925 0719                              l2917 06F5                              l2909 066E  
                            l2861 04CD                              l2853 04BF                              l2845 04A8  
                            l2837 049A                              l2597 0808                              l3397 0A42  
                            l3477 0193                              l3469 0177                              l3493 156B  
                            l3485 1553                              l3389 14FB                              l2677 13A4  
                            l2669 138B                              l2783 0CE9                              l2791 0CFD  
                            l2759 0C85                              l2767 0CA5                              l2775 0CD0  
                            l2695 0BD4                              l2951 077E                              l2943 074E  
                            l2935 072E                              l2927 071A                              l2919 06FE  
                            l2871 04E9                              l2863 04D2                              l2855 04C4  
                            l2847 04AD                              l2839 049E                              l2599 080A  
                            l2687 120C                              l3399 0A47                              l3479 019F  
                            l3495 1571                              l3487 1559                              l2679 13AA  
                            l3583 087F                              l2793 0D01                              l2785 0CED  
                            l2777 0CD6                              l2769 0CB7                              l2697 0BD8  
                            l2961 07B5                              l2945 0753                              l2953 0784  
                            l2937 0732                              l2929 0723                              l2881 050A  
                            l2873 04EE                              l2865 04D7                              l2857 04C8  
                            l2849 04B5                              l2689 1210                              l3585 13D6  
                            l3497 1577                              l3489 155F                              l2795 0D02  
                            l2787 0CEE                              l2779 0CDE                              l2699 0BDC  
                            l2971 07D1                              l2963 07B7                              l2955 0791  
                            l2947 0761                              l2939 0746                              l2891 0594  
                            l2883 0517                              l2875 04F3                              l2867 04DF  
                            l2859 04CC                              l3499 157D                              l2797 0D06  
                            l2789 0CF7                              l2965 07C3                              l2957 079C  
                            l2949 0765                              l2893 05B0                              l2885 0532  
                            l2869 04E1                              l2981 1762                              l2799 0D1A  
                            l2967 07C7                              l2959 07AB                              l2895 05B9  
                            l2887 054E                              l2879 04FC                              l2991 178B  
                            l2983 1772                              l2975 1749                              l2969 07C8  
                            l2897 05C7                              l2889 0578                              l2993 1792  
                            l2977 174E                              l2899 05E4                              l2995 1796  
                            l2987 177B                              l2979 1752                              l2997 17A4  
                            l2989 177E                              l2999 17B4                              STR_1 1026  
                            STR_2 1026                              STR_3 1026                              STR_4 101A  
                            STR_5 1020                              u2100 13FC                              u2101 13FB  
                            u2110 1407                              u2111 1406                              u2120 140E  
                            u2200 0DC0                              u3000 14F6                              u2121 140D  
                            u2201 0DBF                              u3001 14F5                              u2130 1415  
                            u2210 0DDC                              u3010 1388                              u2131 1414  
                            u2211 0DDB                              u3011 1387                              u2140 141C  
                            u3100 0C07                              u2300 0E63                              u2220 0DE5  
                            u2141 141B                              u3101 0C06                              u2301 0E62  
                            u2221 0DE4                              u2150 1423                              u3110 0C0D  
                            u2310 0E70                              u2230 0DEB                              u3030 139A  
                            u2151 1422                              u3111 0C0C                              u2311 0E6F  
                            u2231 0DEA                              u3031 1399                              u2160 142A  
                            u3200 0CB7                              u3120 0C12                              u2240 0DF0  
                            u4000 0362                              u3040 13A4                              u2161 1429  
                            u3201 0CB6                              u3121 0C11                              u2241 0DEF  
                            u4001 0361                              u3041 13A3                              u3025 138C  
                            u2170 1431                              u3210 0CCC                              u3130 0C2D  
                            u2410 0EE9                              u2330 0E86                              u2250 0E09  
                            u4010 037A                              u2171 1430                              u3131 0C2C  
                            u2411 0EE8                              u2331 0E85                              u2251 0E08  
                            u4011 0379                              u3300 0D21                              u3220 0CD6  
                            u3140 0C4B                              u2500 0F81                              u2340 0E8A  
                            u2260 0E0D                              u2180 0DB5                              u4020 0393  
                            u3060 13B7                              u4100 08BB                              u3301 0D20  
                            u3221 0CD5                              u3205 0CB3                              u3141 0C4A  
                            u2501 0F80                              u2421 0F00                              u2413 0EE5  
                            u2405 0EC7                              u2341 0E89                              u2325 0E73  
                            u2261 0E0C                              u2181 0DB4                              u4021 0392  
                            u3061 13B6                              u3045 13A0                              u4101 08BA  
                            u3310 0D27                              u3230 0CDE                              u3150 0C85  
                            u3070 0BDC                              u2510 0F87                              u2430 0F14  
                            u2422 0F01                              u2350 0E8F                              u2270 0E47  
                            u2190 0DBB                              u4030 03C9                              u4110 08FC  
                            u3311 0D26                              u3231 0CDD                              u3215 0CBF  
                            u3151 0C84                              u3071 0BDB                              u2511 0F86  
                            u2431 0F15                              u2423 0F06                              u2351 0E8E  
                            u2271 0E46                              u2191 0DBA                              u4031 03C8  
                            u3055 13AB                              u4111 08FB                              u3320 0D39  
                            u3216 0CC0                              u3080 0BE2                              u3400 04CC  
                            u2600 0FDD                              u2520 0F8C                              u2440 0F32  
                            u2432 0F1A                              u2424 0F07                              u2280 0E52  
                            u4040 03FF                              u4120 090C                              u3321 0D38  
                            u3217 0CC5                              u3081 0BE1                              u3401 04CB  
                            u2601 0FDC                              u2521 0F8B                              u2441 0F31  
                            u2433 0F1B                              u2425 0F0C                              u2361 0EA1  
                            u2281 0E50                              u4041 03FE                              u4121 090B  
                            u3330 0D48                              u3250 0CED                              u3218 0CC6  
                            u3090 0BE7                              u3410 04D2                              u2610 0FEA  
                            u2530 0F92                              u2450 0F57                              u2426 0F0D  
                            u2370 0EB3                              u2362 0EA8                              u2290 0E53  
                            u4050 048E                              u4130 0B00                              u3251 0CEC  
                            u3219 0CCB                              u3091 0BE6                              u3411 04D1  
                            u2611 0FE9                              u2531 0F91                              u2451 0F56  
                            u2371 0EB2                              u2363 0EAF                              u2275 0E43  
                            u4051 048D                              u4035 03C5                              u3340 0D65  
                            u3180 0C9B                              u3420 04D7                              u2620 0FEF  
                            u2540 0F99                              u2460 0F5C                              u2380 0EB7  
                            u4140 0B0A                              u4060 144A                              u3341 0D64  
                            u3245 0CE2                              u3181 0C9A                              u3165 0C87  
                            u3501 05D6                              u3421 04D6                              u2621 0FEE  
                            u2541 0F98                              u2461 0F5B                              u2381 0EB6  
                            u4045 03FB                              u4141 0B0B                              u4061 1449  
                            u3350 0D82                              u3270 0D01                              u3502 05DD  
                            u3430 04EE                              u2630 0FFE                              u2550 0F9F  
                            u2390 0EC4                              u4150 0B1C                              u4142 0B10  
                            u4070 1474                              u2710 0029                              u3351 0D81  
                            u3335 0D43                              u3271 0D00                              u3175 0C90  
                            u3511 0601                              u3503 05E4                              u3431 04ED  
                            u2631 0FFD                              u2551 0F9E                              u2391 0EC3  
                            u4055 048A                              u4151 0B1D                              u4143 0B11  
                            u4135 0AFB                              u4071 1473                              u4207 1451  
                            u2711 0028                              u3360 0D97                              u3280 0D06  
                            u2800 170A                              u2640 123E                              u3512 0608  
                            u3440 04F3                              u2560 0FB1                              u2480 0F72  
                            u4152 0B22                              u4080 085C                              u4160 09ED  
                            u3361 0D96                              u3345 0D61                              u3281 0D05  
                            u3265 0CF0                              u2801 1709                              u2641 123D  
                            u3513 060F                              u3441 04F2                              u2561 0FB0  
                            u2481 0F71                              u4153 0B23                              u4217 0815  
                            u4081 085B                              u4161 09EC                              u2705 001A  
                            u3290 0D1A                              u3370 04A2                              u2570 0FC0  
                            u2490 0F77                              u4170 125F                              u4090 08B0  
                            u2730 0044                              u4307 162A                              u3355 0D7E  
                            u3291 0D19                              u3195 0C9E                              u2811 1719  
                            u3531 0635                              u3451 0540                              u3371 04A1  
                            u2491 0F76                              u2475 0F67                              u4171 125E  
                            u4227 0824                              u4075 1470                              u4091 08AF  
                            u2731 0043                              u2820 1744                              u2812 171A  
                            u2660 1252                              u3700 0774                              u3620 0719  
                            u3532 063C                              u3452 0547                              u3380 04A8  
                            u2580 0FCF                              u2900 1684                              u4180 1279  
                            u2821 1743                              u2813 171F                              u2661 1251  
                            u3621 0718                              u3605 06F7                              u3541 0660  
                            u3533 0643                              u3525 0611                              u3461 055C  
                            u3453 054E                              u3381 04A7                              u2581 0FCE  
                            u2901 1683                              u4181 1278                              u4237 0833  
                            u2725 002B                              u2670 1193                              u2814 1720  
                            u3710 0791                              u3542 0667                              u3462 0563  
                            u3390 04AD                              u2830 0808                              u2590 0FD8  
                            u2750 0062                              u2671 1192                              u2815 1725  
                            u2655 1245                              u3711 0790                              u3615 070E  
                            u3551 068B                              u3543 066E                              u3471 0586  
                            u3463 056A                              u3391 04AC                              u2831 0807  
                            u2591 0FD7                              u2575 0FBB                              u4247 12B4  
                            u4095 08AC                              u2751 0061                              u2735 0040  
                            u2680 1199                              u2816 1726                              u2760 16BA  
                            u3720 07AB                              u3640 072D                              u3560 06B3  
                            u3552 0692                              u3472 058D                              u2920 1695  
                            u2840 1639                              u3800 17B3                              u2681 1198  
                            u2825 1740                              u2761 16B9                              u3721 07AA  
                            u3705 076F                              u3641 072C                              u3553 0699  
                            u3481 05A2                              u3473 0594                              u2921 1694  
                            u2841 1638                              u3801 17B2                              u4257 12D9  
                            u4185 1275                              u2745 0054                              u2770 16D6  
                            u3730 07C7                              u3650 0732                              u3482 05A9  
                            u2930 169A                              u2850 1650                              u2690 0015  
                            u2771 16D5                              u3731 07C6                              u3715 078D  
                            u3651 0731                              u3635 071C                              u3571 06BF  
                            u3483 05B0                              u2931 1699                              u2915 1687  
                            u4267 0A3E                              u2691 0014                              _PEIE 005E  
                            u3900 11F2                              u2780 16E2                              u3660 0746  
                            u3580 06DB                              u3572 06C6                              u2860 1664  
                            u3820 17C3                              u3740 174E                              u2940 14BF  
                            u3901 11F1                              u4277 11CB                              u2781 16E1  
                            u3725 07A7                              u3661 0745                              u3573 06CD  
                            u3565 06AE                              u2861 1663                              u3821 17C2  
                            u3741 174D                              u4197 154B                              u2941 14BE  
                            u3910 1202                              u3670 074D                              u2870 166B  
                            u3830 17C9                              u3750 1752                              u4287 11E3  
                            u3911 1201                              u2791 16F1                              u3671 074C  
                            u3591 06E7                              u3495 05B2                              u2871 166A  
                            u2855 164B                              u3831 17C8                              u3815 17B8  
                            u3751 1751                              u3920 1482                              u2792 16F2  
                            u3680 0753                              u3592 06EE                              u3840 17CD  
                            u3760 1772                              u2960 14D1                              u4297 15C2  
                            u2793 16F7                              u3681 0752                              u3593 06F5  
                            u3585 06D6                              u3841 17CC                              u3761 1771  
                            u2961 14D0                              u3930 14A4                              u2794 16F8  
                            u3690 0765                              u2890 167D                              u3850 17E2  
                            u2795 16FD                              u3691 0764                              u2891 167C  
                            u2955 14C3                              u3940 14B6                              u2796 16FE  
                            u3860 17F2                              u3780 1791                              u2980 14E2  
                            u3941 14B5                              u2885 166D                              u3861 17F1  
                            u3781 1790                              u2981 14E1                              u3870 17F6  
                            u3950 01E5                              u3871 17F5                              u3855 17DD  
                            u3775 1783                              u3951 01E4                              u2975 14D2  
                            u3960 0222                              u3880 1361                              u3961 0221  
                            u2985 14DE                              u3890 12A3                              u3970 0267  
                            u3891 12A2                              u3795 17A5                              u3971 0266  
                            u2995 14EA                              u3980 02AC                              u3981 02AB  
                            u3885 135C                              u3990 0311                              u3991 0310  
                            u3995 030D                              _data 0190                 ?_Lcd_Write_String 0073  
__end_of_I2C_Master_RepeatedStart 1171                              _main 1314                              btemp 007E  
                            start 0000                ??_Lcd_Write_String 0075                   ___fldiv@new_exp 0025  
                 __end_of_Lcd_Cmd 11EC                  UART_write_char@c 0070                             ??_RTC 007A  
                 __end_of_SendESP 15BE                    AHT10_Read@data 00E5                  ?_I2C_Master_Init 0020  
                ?_I2C_Master_Read 0070                  ?_I2C_Master_Wait 0070                  ?_I2C_Master_Stop 0070  
                   ___fltol@sign1 0078                   __end_of___fladd 1000                             ?_main 0070  
                 __end_of___fldiv 0DA8                   __end_of___flneg 080B                   __end_of___flmul 07DA  
                 __end_of___flsub 1230                   __end_of___fltol 16A6                             _ANSEL 0188  
                 __end_of___lldiv 006B                   __end_of___lwdiv 14FB                   __end_of___lwmod 13BC  
                           _RCREG 001A                             _SPBRG 0099                             _PORTA 0005  
                           _PORTB 0006                             _PORTD 0008                             _PORTE 0009  
                           _TRISA 0085                             _TRISB 0086                             _TRISD 0088  
                           _SSPIE 0463                             _TRISE 0089                             _SSPIF 0063  
                           _TXREG 0019                   __end_of_dpowers 101A                             _light 00A8  
                           _hours 00C7                             _setup 12DF                             pclath 000A  
                           status 0003                             wtemp0 007E                   __end_of_sprintf 0911  
                __end_of_Lcd_Init 0850                  __end_of_Lcd_Port 1435                   __initialization 07DA  
                    __end_of_main 134A             floattostr@tempo_float 00CD                            ??_main 007E  
                       ??_DCOnOff 007A                 ?_I2C_Master_Start 0070                 ?_I2C_Master_Write 0070  
                    ??_AHT10_Init 0076                      ??_AHT10_Read 00D7                  _AHT10_Soft_Reset 12B0  
              ??_I2C_Master_Start 0070                ??_I2C_Master_Write 0072                            ?_setup 0070  
                          _ANSELH 0189                         ??_Lcd_Cmd 0071                            _SPBRGH 009A  
                          _SSPADD 0093                            _TRISC3 043B                            _TRISC4 043C  
                          _SSPCON 0014                            _SSPBUF 0013                  __end_of___xxtofl 1800  
                       ??_SendESP 0077          _I2C_Master_RepeatedStart 1168                            ___flge 16A6  
                          _cadena 1435                         ??___fladd 004F                         ??___fldiv 0078  
                       ??___flneg 0074                         ??___flmul 0035                         ??___flsub 007E  
                       ??___fltol 0074                         ??___lldiv 0078                __end_of_AHT10_Init 1630  
              __end_of_AHT10_Read 0BCF                         ??___lwdiv 0074                         ??___lwmod 007C  
                          _buffer 00C2                        NumtoChar@a 0070                   _UART_write_char 115A  
                       ??_sprintf 0023                   Lcd_Set_Cursor@a 0075                   Lcd_Set_Cursor@b 0074  
                      ___flge@ff1 0070                        ___flge@ff2 0074                      ___xxtofl@arg 007A  
                    ___xxtofl@exp 0079                      ___xxtofl@val 0070           __end_of__initialization 07FC  
                      ___flneg@f1 0070                        ___fltol@f1 0070                    __pcstackCOMMON 0070  
                   __end_of_setup 1314                        _decMinutes 00B0                        _decSeconds 00B4  
                  _Lcd_Set_Cursor 11EC                         ?_Lcd_Init 0070                         ?_Lcd_Port 0070  
                         ??_setup 007E                     ?_TSL2561_Init 0070                     ?_TSL2561_Read 0070  
                      __pbssBANK0 006A                        __pbssBANK1 00A0                        __pbssBANK2 0110  
                      __pbssBANK3 0190                 __end_of__Umul8_16 1257                 __end_of_NumtoChar 13F7  
                      __pmaintext 1314                           ?___flge 0070                           ?_cadena 0070  
         __end_of_UART_write_char 1160            __end_of_Lcd_Set_Cursor 120C                           _DCOnOff 1257  
                       ?___xxtofl 0070                           _DCmotor 00A6                        ??_Lcd_Init 0074  
                      ??_Lcd_Port 0070                           _SSPCON2 0091                    ??_TSL2561_Init 0072  
                  ??_TSL2561_Read 002D                           _SSPSTAT 0094                        __stringtab 1000  
                  _Lcd_Write_Char 11BC                           _Lcd_Cmd 11D2                    _UART_RX_config 11A8  
                      _floattostr 01BD                           _SendESP 1553                    _UART_TX_config 119A  
        __end_of_AHT10_Soft_Reset 12DF                           ___fladd 0DA8                           ___fldiv 0BCF  
                         ___flneg 0800                           ___flmul 0495                           ___flsub 120C  
                         ___fltol 1630                           ___lldiv 0005                           ___lwdiv 14B7  
                         ___lwmod 1382                   ?_Lcd_Set_Cursor 0074                           cadena@i 0074  
                         __ptext1 12DF                           __ptext2 119A                           __ptext3 11A8  
                         __ptext4 134A                           __ptext5 0005                           __ptext6 0911  
                         __ptext7 0850                           __ptext8 1382                           __ptext9 14B7  
                         _dpowers 1010                        ??___xxtofl 0074                           _minutes 00C9  
                         _seconds 006E                           _nothing 00A4                           _sprintf 0850  
                         clrloop0 1161            __end_of_Lcd_Write_Char 11D2              end_of_initialization 07FC  
          __end_of_UART_RX_config 11BC        ??_I2C_Master_RepeatedStart 0070            __end_of_UART_TX_config 11A8  
                 ___lldiv@divisor 0070                   ___lldiv@counter 007D                         _RCSTAbits 0018  
                I2C_Master_Init@c 0020                  I2C_Master_Read@a 0070                         Lcd_Port@a 0070  
                ?_UART_write_char 0070                        _uniMinutes 00AE                        _uniSeconds 00B2  
               floattostr@cadena_ 0067                         _PORTBbits 0006                       ___fladd@grs 005A  
                   ___xxtofl@sign 0078                 floattostr@largo_n 00D1                         _TRISCbits 0087  
                     ___fldiv@grs 0027                       ___fldiv@rem 0020                   ?_Lcd_Write_Char 0070  
               floattostr@numero_ 0063                 Lcd_Write_String@a 0073                 Lcd_Write_String@i 0078  
                 ?_UART_RX_config 0070                       ___flmul@grs 003B                       ?_floattostr 0063  
                 ?_UART_TX_config 0070                         _TXSTAbits 0098            UART_RX_config@baudrate 0070  
                  __end_of___flge 1748              __end_of_TSL2561_Init 1553              __end_of_TSL2561_Read 0A0B  
                  __end_of_cadena 1475                  _Lcd_Write_String 1475                       _BAUDCTLbits 0187  
             start_initialization 07DA                       __end_of_RTC 01BD                 ??_I2C_Master_Init 0024  
               ??_I2C_Master_Read 0072                 ??_I2C_Master_Wait 0070                 ??_I2C_Master_Stop 0070  
                        ??___flge 0078                          ??_cadena 0070                         __Umul8_16 1230  
                       _NumtoChar 13BC                   Lcd_Write_Char@a 0072                          ?_DCOnOff 0070  
                       ___fladd@a 004B                         ___fladd@b 0047                         ___fldiv@a 0070  
                       ___fldiv@b 0074                         ___flmul@a 0031                         ___flmul@b 002D  
                       ___flsub@a 005B                         ___flsub@b 005F                         ___latbits 0002  
                   __pcstackBANK0 0020                     __pcstackBANK1 00CB                          ?_Lcd_Cmd 0070  
                     sprintf@flag 0026                       sprintf@prec 002A                  _I2C_Master_Start 1171  
                _I2C_Master_Write 1183                          ?_SendESP 0070                  ___lwdiv@dividend 0072  
                ??_Lcd_Set_Cursor 0075                 ?_AHT10_Soft_Reset 0070                          ?___fladd 0047  
                        ?___fldiv 0070                          ?___flneg 0070                          ?___flmul 002D  
                       cadena@txt 0076                          ?___flsub 005B                          ?___fltol 0070  
                        ?___lldiv 0070                        ?__Umul8_16 0070                          ?___lwdiv 0070  
                      ?_NumtoChar 0070                          ?___lwmod 0078                ??_AHT10_Soft_Reset 0072  
                       _bufferch0 0196                         _bufferch1 0140                         _bufferch2 0110  
                       __pstrings 1000                       cadena@cont0 0072                  ___lwdiv@quotient 0075  
                        ?_sprintf 0020                         clear_ram0 1160                          _PIE1bits 008C  
                     _bufferTotal 01C6                          Lcd_Cmd@a 0073                          _PIR1bits 000C  
                     __stringbase 100F                  ??_Lcd_Write_Char 0071                  ??_UART_RX_config 0072  
                      _AHT10_Init 15BE                        _AHT10_Read 0A0B                          _Lcd_Init 080B  
                        _Lcd_Port 13F7               I2C_Master_Read@temp 0074                  ??_UART_TX_config 0072  
                    _TSL2561_Init 14FB                      _TSL2561_Read 0911          __end_of_Lcd_Write_String 14B7  
                    ??_floattostr 0069                       ??__Umul8_16 0072                       ??_NumtoChar 0072  
       ?_I2C_Master_RepeatedStart 0070                __end_of__stringtab 1010                          _decHours 00AC  
                      sprintf@val 0028                   _I2C_Master_Init 134A                   _I2C_Master_Read 1282  
                        ___xxtofl 1748                __end_of_floattostr 0495                   _I2C_Master_Wait 118D  
                 _I2C_Master_Stop 117A                   ___lwdiv@divisor 0070                   ___lwdiv@counter 0077  
                        __ptext10 14FB                          __ptext11 1553                          __ptext20 01BD  
                        __ptext12 1435                          __ptext21 1748                          __ptext13 115A  
                        __ptext30 1475                          __ptext22 1630                          __ptext14 006B  
                        __ptext31 11BC                          __ptext23 120C                          __ptext15 13BC  
                        __ptext40 1282                          __ptext32 11EC                          __ptext24 0DA8  
                        __ptext16 080B                          __ptext41 118D                          __ptext33 11D2  
                        __ptext25 0800                          __ptext17 1257                          __ptext34 13F7  
                        __ptext26 0495                          __ptext18 12B0                          __ptext35 15BE  
                        __ptext27 1230                          __ptext19 0A0B                          __ptext36 1183  
                        __ptext28 16A6                          __ptext37 117A                          __ptext29 0BCF  
                        __ptext38 1171                          __ptext39 1168                          _buffTime 00B8  
                        _uniHours 00AA            UART_TX_config@baudrate 0070          __end_of_I2C_Master_Start 117A  
        __end_of_I2C_Master_Write 118D                        _INTCONbits 000B                       ?_AHT10_Init 0070  
                     ?_AHT10_Read 0070              floattostr@decimales_ 0068                         sprintf@ap 0027  
                       sprintf@sp 002B                  ___lwmod@dividend 007A                  ___lldiv@dividend 0074  
                       stringcode 100A                        _OSCCONbits 008F           __end_of_I2C_Master_Init 1382  
         __end_of_I2C_Master_Read 12B0           __end_of_I2C_Master_Wait 119A           __end_of_I2C_Master_Stop 1183  
              Lcd_Set_Cursor@temp 0076            __Umul8_16@multiplicand 0070                       _temperature 00A0  
                        sprintf@c 002C                          sprintf@f 0020                  ___lldiv@quotient 0079  
               I2C_Master_Write@d 0070                   ___lwmod@divisor 0078                   ___lwmod@counter 007D  
                        stringdir 100A                          stringtab 1000            floattostr@largo_entera 00D5  
                     _SSPCON2bits 0091                     ___fladd@signs 0057                 ??_UART_write_char 0070  
                    ___fladd@aexp 0058                      ___fladd@bexp 0059              __Umul8_16@multiplier 0078  
              floattostr@cont_for 00D3                 __Umul8_16@product 0074  
